
adc.elf:     file format elf32-littlearm

Sections:
Idx Name          Size      VMA       LMA       File off  Algn
  0 .isr_vector   0000010c  08000000  08000000  00010000  2**0
                  CONTENTS, ALLOC, LOAD, READONLY, DATA
  1 .text         00004934  08000110  08000110  00010110  2**3
                  CONTENTS, ALLOC, LOAD, READONLY, CODE
  2 .rodata       000000c8  08004a48  08004a48  00014a48  2**3
                  CONTENTS, ALLOC, LOAD, READONLY, DATA
  3 .ARM.extab    00000000  08004b10  08004b10  00020074  2**0
                  CONTENTS
  4 .ARM          00000000  08004b10  08004b10  00020074  2**0
                  CONTENTS
  5 .preinit_array 00000000  08004b10  08004b10  00020074  2**0
                  CONTENTS, ALLOC, LOAD, DATA
  6 .init_array   00000004  08004b10  08004b10  00014b10  2**2
                  CONTENTS, ALLOC, LOAD, DATA
  7 .fini_array   00000004  08004b14  08004b14  00014b14  2**2
                  CONTENTS, ALLOC, LOAD, DATA
  8 .data         00000074  20000000  08004b18  00020000  2**2
                  CONTENTS, ALLOC, LOAD, DATA
  9 .bss          00000100  20000078  08004b8c  00020078  2**3
                  ALLOC
 10 ._user_heap_stack 00000600  20000178  08004b8c  00020178  2**0
                  ALLOC
 11 .ARM.attributes 00000029  00000000  00000000  00020074  2**0
                  CONTENTS, READONLY
 12 .debug_info   00007a67  00000000  00000000  0002009d  2**0
                  CONTENTS, READONLY, DEBUGGING, OCTETS
 13 .debug_abbrev 00001bab  00000000  00000000  00027b04  2**0
                  CONTENTS, READONLY, DEBUGGING, OCTETS
 14 .debug_aranges 00000730  00000000  00000000  000296b0  2**3
                  CONTENTS, READONLY, DEBUGGING, OCTETS
 15 .debug_ranges 00000658  00000000  00000000  00029de0  2**3
                  CONTENTS, READONLY, DEBUGGING, OCTETS
 16 .debug_macro  000176e5  00000000  00000000  0002a438  2**0
                  CONTENTS, READONLY, DEBUGGING, OCTETS
 17 .debug_line   000087cc  00000000  00000000  00041b1d  2**0
                  CONTENTS, READONLY, DEBUGGING, OCTETS
 18 .debug_str    000861d8  00000000  00000000  0004a2e9  2**0
                  CONTENTS, READONLY, DEBUGGING, OCTETS
 19 .comment      00000053  00000000  00000000  000d04c1  2**0
                  CONTENTS, READONLY
 20 .debug_frame  000020b8  00000000  00000000  000d0514  2**2
                  CONTENTS, READONLY, DEBUGGING, OCTETS

Disassembly of section .text:

08000110 <__do_global_dtors_aux>:
 8000110:	b510      	push	{r4, lr}
 8000112:	4c05      	ldr	r4, [pc, #20]	; (8000128 <__do_global_dtors_aux+0x18>)
 8000114:	7823      	ldrb	r3, [r4, #0]
 8000116:	b933      	cbnz	r3, 8000126 <__do_global_dtors_aux+0x16>
 8000118:	4b04      	ldr	r3, [pc, #16]	; (800012c <__do_global_dtors_aux+0x1c>)
 800011a:	b113      	cbz	r3, 8000122 <__do_global_dtors_aux+0x12>
 800011c:	4804      	ldr	r0, [pc, #16]	; (8000130 <__do_global_dtors_aux+0x20>)
 800011e:	f3af 8000 	nop.w
 8000122:	2301      	movs	r3, #1
 8000124:	7023      	strb	r3, [r4, #0]
 8000126:	bd10      	pop	{r4, pc}
 8000128:	20000078 	.word	0x20000078
 800012c:	00000000 	.word	0x00000000
 8000130:	08004a2c 	.word	0x08004a2c

08000134 <frame_dummy>:
 8000134:	b508      	push	{r3, lr}
 8000136:	4b03      	ldr	r3, [pc, #12]	; (8000144 <frame_dummy+0x10>)
 8000138:	b11b      	cbz	r3, 8000142 <frame_dummy+0xe>
 800013a:	4903      	ldr	r1, [pc, #12]	; (8000148 <frame_dummy+0x14>)
 800013c:	4803      	ldr	r0, [pc, #12]	; (800014c <frame_dummy+0x18>)
 800013e:	f3af 8000 	nop.w
 8000142:	bd08      	pop	{r3, pc}
 8000144:	00000000 	.word	0x00000000
 8000148:	2000007c 	.word	0x2000007c
 800014c:	08004a2c 	.word	0x08004a2c

08000150 <__aeabi_drsub>:
 8000150:	f081 4100 	eor.w	r1, r1, #2147483648	; 0x80000000
 8000154:	e002      	b.n	800015c <__adddf3>
 8000156:	bf00      	nop

08000158 <__aeabi_dsub>:
 8000158:	f083 4300 	eor.w	r3, r3, #2147483648	; 0x80000000

0800015c <__adddf3>:
 800015c:	b530      	push	{r4, r5, lr}
 800015e:	ea4f 0441 	mov.w	r4, r1, lsl #1
 8000162:	ea4f 0543 	mov.w	r5, r3, lsl #1
 8000166:	ea94 0f05 	teq	r4, r5
 800016a:	bf08      	it	eq
 800016c:	ea90 0f02 	teqeq	r0, r2
 8000170:	bf1f      	itttt	ne
 8000172:	ea54 0c00 	orrsne.w	ip, r4, r0
 8000176:	ea55 0c02 	orrsne.w	ip, r5, r2
 800017a:	ea7f 5c64 	mvnsne.w	ip, r4, asr #21
 800017e:	ea7f 5c65 	mvnsne.w	ip, r5, asr #21
 8000182:	f000 80e2 	beq.w	800034a <__adddf3+0x1ee>
 8000186:	ea4f 5454 	mov.w	r4, r4, lsr #21
 800018a:	ebd4 5555 	rsbs	r5, r4, r5, lsr #21
 800018e:	bfb8      	it	lt
 8000190:	426d      	neglt	r5, r5
 8000192:	dd0c      	ble.n	80001ae <__adddf3+0x52>
 8000194:	442c      	add	r4, r5
 8000196:	ea80 0202 	eor.w	r2, r0, r2
 800019a:	ea81 0303 	eor.w	r3, r1, r3
 800019e:	ea82 0000 	eor.w	r0, r2, r0
 80001a2:	ea83 0101 	eor.w	r1, r3, r1
 80001a6:	ea80 0202 	eor.w	r2, r0, r2
 80001aa:	ea81 0303 	eor.w	r3, r1, r3
 80001ae:	2d36      	cmp	r5, #54	; 0x36
 80001b0:	bf88      	it	hi
 80001b2:	bd30      	pophi	{r4, r5, pc}
 80001b4:	f011 4f00 	tst.w	r1, #2147483648	; 0x80000000
 80001b8:	ea4f 3101 	mov.w	r1, r1, lsl #12
 80001bc:	f44f 1c80 	mov.w	ip, #1048576	; 0x100000
 80001c0:	ea4c 3111 	orr.w	r1, ip, r1, lsr #12
 80001c4:	d002      	beq.n	80001cc <__adddf3+0x70>
 80001c6:	4240      	negs	r0, r0
 80001c8:	eb61 0141 	sbc.w	r1, r1, r1, lsl #1
 80001cc:	f013 4f00 	tst.w	r3, #2147483648	; 0x80000000
 80001d0:	ea4f 3303 	mov.w	r3, r3, lsl #12
 80001d4:	ea4c 3313 	orr.w	r3, ip, r3, lsr #12
 80001d8:	d002      	beq.n	80001e0 <__adddf3+0x84>
 80001da:	4252      	negs	r2, r2
 80001dc:	eb63 0343 	sbc.w	r3, r3, r3, lsl #1
 80001e0:	ea94 0f05 	teq	r4, r5
 80001e4:	f000 80a7 	beq.w	8000336 <__adddf3+0x1da>
 80001e8:	f1a4 0401 	sub.w	r4, r4, #1
 80001ec:	f1d5 0e20 	rsbs	lr, r5, #32
 80001f0:	db0d      	blt.n	800020e <__adddf3+0xb2>
 80001f2:	fa02 fc0e 	lsl.w	ip, r2, lr
 80001f6:	fa22 f205 	lsr.w	r2, r2, r5
 80001fa:	1880      	adds	r0, r0, r2
 80001fc:	f141 0100 	adc.w	r1, r1, #0
 8000200:	fa03 f20e 	lsl.w	r2, r3, lr
 8000204:	1880      	adds	r0, r0, r2
 8000206:	fa43 f305 	asr.w	r3, r3, r5
 800020a:	4159      	adcs	r1, r3
 800020c:	e00e      	b.n	800022c <__adddf3+0xd0>
 800020e:	f1a5 0520 	sub.w	r5, r5, #32
 8000212:	f10e 0e20 	add.w	lr, lr, #32
 8000216:	2a01      	cmp	r2, #1
 8000218:	fa03 fc0e 	lsl.w	ip, r3, lr
 800021c:	bf28      	it	cs
 800021e:	f04c 0c02 	orrcs.w	ip, ip, #2
 8000222:	fa43 f305 	asr.w	r3, r3, r5
 8000226:	18c0      	adds	r0, r0, r3
 8000228:	eb51 71e3 	adcs.w	r1, r1, r3, asr #31
 800022c:	f001 4500 	and.w	r5, r1, #2147483648	; 0x80000000
 8000230:	d507      	bpl.n	8000242 <__adddf3+0xe6>
 8000232:	f04f 0e00 	mov.w	lr, #0
 8000236:	f1dc 0c00 	rsbs	ip, ip, #0
 800023a:	eb7e 0000 	sbcs.w	r0, lr, r0
 800023e:	eb6e 0101 	sbc.w	r1, lr, r1
 8000242:	f5b1 1f80 	cmp.w	r1, #1048576	; 0x100000
 8000246:	d31b      	bcc.n	8000280 <__adddf3+0x124>
 8000248:	f5b1 1f00 	cmp.w	r1, #2097152	; 0x200000
 800024c:	d30c      	bcc.n	8000268 <__adddf3+0x10c>
 800024e:	0849      	lsrs	r1, r1, #1
 8000250:	ea5f 0030 	movs.w	r0, r0, rrx
 8000254:	ea4f 0c3c 	mov.w	ip, ip, rrx
 8000258:	f104 0401 	add.w	r4, r4, #1
 800025c:	ea4f 5244 	mov.w	r2, r4, lsl #21
 8000260:	f512 0f80 	cmn.w	r2, #4194304	; 0x400000
 8000264:	f080 809a 	bcs.w	800039c <__adddf3+0x240>
 8000268:	f1bc 4f00 	cmp.w	ip, #2147483648	; 0x80000000
 800026c:	bf08      	it	eq
 800026e:	ea5f 0c50 	movseq.w	ip, r0, lsr #1
 8000272:	f150 0000 	adcs.w	r0, r0, #0
 8000276:	eb41 5104 	adc.w	r1, r1, r4, lsl #20
 800027a:	ea41 0105 	orr.w	r1, r1, r5
 800027e:	bd30      	pop	{r4, r5, pc}
 8000280:	ea5f 0c4c 	movs.w	ip, ip, lsl #1
 8000284:	4140      	adcs	r0, r0
 8000286:	eb41 0101 	adc.w	r1, r1, r1
 800028a:	3c01      	subs	r4, #1
 800028c:	bf28      	it	cs
 800028e:	f5b1 1f80 	cmpcs.w	r1, #1048576	; 0x100000
 8000292:	d2e9      	bcs.n	8000268 <__adddf3+0x10c>
 8000294:	f091 0f00 	teq	r1, #0
 8000298:	bf04      	itt	eq
 800029a:	4601      	moveq	r1, r0
 800029c:	2000      	moveq	r0, #0
 800029e:	fab1 f381 	clz	r3, r1
 80002a2:	bf08      	it	eq
 80002a4:	3320      	addeq	r3, #32
 80002a6:	f1a3 030b 	sub.w	r3, r3, #11
 80002aa:	f1b3 0220 	subs.w	r2, r3, #32
 80002ae:	da0c      	bge.n	80002ca <__adddf3+0x16e>
 80002b0:	320c      	adds	r2, #12
 80002b2:	dd08      	ble.n	80002c6 <__adddf3+0x16a>
 80002b4:	f102 0c14 	add.w	ip, r2, #20
 80002b8:	f1c2 020c 	rsb	r2, r2, #12
 80002bc:	fa01 f00c 	lsl.w	r0, r1, ip
 80002c0:	fa21 f102 	lsr.w	r1, r1, r2
 80002c4:	e00c      	b.n	80002e0 <__adddf3+0x184>
 80002c6:	f102 0214 	add.w	r2, r2, #20
 80002ca:	bfd8      	it	le
 80002cc:	f1c2 0c20 	rsble	ip, r2, #32
 80002d0:	fa01 f102 	lsl.w	r1, r1, r2
 80002d4:	fa20 fc0c 	lsr.w	ip, r0, ip
 80002d8:	bfdc      	itt	le
 80002da:	ea41 010c 	orrle.w	r1, r1, ip
 80002de:	4090      	lslle	r0, r2
 80002e0:	1ae4      	subs	r4, r4, r3
 80002e2:	bfa2      	ittt	ge
 80002e4:	eb01 5104 	addge.w	r1, r1, r4, lsl #20
 80002e8:	4329      	orrge	r1, r5
 80002ea:	bd30      	popge	{r4, r5, pc}
 80002ec:	ea6f 0404 	mvn.w	r4, r4
 80002f0:	3c1f      	subs	r4, #31
 80002f2:	da1c      	bge.n	800032e <__adddf3+0x1d2>
 80002f4:	340c      	adds	r4, #12
 80002f6:	dc0e      	bgt.n	8000316 <__adddf3+0x1ba>
 80002f8:	f104 0414 	add.w	r4, r4, #20
 80002fc:	f1c4 0220 	rsb	r2, r4, #32
 8000300:	fa20 f004 	lsr.w	r0, r0, r4
 8000304:	fa01 f302 	lsl.w	r3, r1, r2
 8000308:	ea40 0003 	orr.w	r0, r0, r3
 800030c:	fa21 f304 	lsr.w	r3, r1, r4
 8000310:	ea45 0103 	orr.w	r1, r5, r3
 8000314:	bd30      	pop	{r4, r5, pc}
 8000316:	f1c4 040c 	rsb	r4, r4, #12
 800031a:	f1c4 0220 	rsb	r2, r4, #32
 800031e:	fa20 f002 	lsr.w	r0, r0, r2
 8000322:	fa01 f304 	lsl.w	r3, r1, r4
 8000326:	ea40 0003 	orr.w	r0, r0, r3
 800032a:	4629      	mov	r1, r5
 800032c:	bd30      	pop	{r4, r5, pc}
 800032e:	fa21 f004 	lsr.w	r0, r1, r4
 8000332:	4629      	mov	r1, r5
 8000334:	bd30      	pop	{r4, r5, pc}
 8000336:	f094 0f00 	teq	r4, #0
 800033a:	f483 1380 	eor.w	r3, r3, #1048576	; 0x100000
 800033e:	bf06      	itte	eq
 8000340:	f481 1180 	eoreq.w	r1, r1, #1048576	; 0x100000
 8000344:	3401      	addeq	r4, #1
 8000346:	3d01      	subne	r5, #1
 8000348:	e74e      	b.n	80001e8 <__adddf3+0x8c>
 800034a:	ea7f 5c64 	mvns.w	ip, r4, asr #21
 800034e:	bf18      	it	ne
 8000350:	ea7f 5c65 	mvnsne.w	ip, r5, asr #21
 8000354:	d029      	beq.n	80003aa <__adddf3+0x24e>
 8000356:	ea94 0f05 	teq	r4, r5
 800035a:	bf08      	it	eq
 800035c:	ea90 0f02 	teqeq	r0, r2
 8000360:	d005      	beq.n	800036e <__adddf3+0x212>
 8000362:	ea54 0c00 	orrs.w	ip, r4, r0
 8000366:	bf04      	itt	eq
 8000368:	4619      	moveq	r1, r3
 800036a:	4610      	moveq	r0, r2
 800036c:	bd30      	pop	{r4, r5, pc}
 800036e:	ea91 0f03 	teq	r1, r3
 8000372:	bf1e      	ittt	ne
 8000374:	2100      	movne	r1, #0
 8000376:	2000      	movne	r0, #0
 8000378:	bd30      	popne	{r4, r5, pc}
 800037a:	ea5f 5c54 	movs.w	ip, r4, lsr #21
 800037e:	d105      	bne.n	800038c <__adddf3+0x230>
 8000380:	0040      	lsls	r0, r0, #1
 8000382:	4149      	adcs	r1, r1
 8000384:	bf28      	it	cs
 8000386:	f041 4100 	orrcs.w	r1, r1, #2147483648	; 0x80000000
 800038a:	bd30      	pop	{r4, r5, pc}
 800038c:	f514 0480 	adds.w	r4, r4, #4194304	; 0x400000
 8000390:	bf3c      	itt	cc
 8000392:	f501 1180 	addcc.w	r1, r1, #1048576	; 0x100000
 8000396:	bd30      	popcc	{r4, r5, pc}
 8000398:	f001 4500 	and.w	r5, r1, #2147483648	; 0x80000000
 800039c:	f045 41fe 	orr.w	r1, r5, #2130706432	; 0x7f000000
 80003a0:	f441 0170 	orr.w	r1, r1, #15728640	; 0xf00000
 80003a4:	f04f 0000 	mov.w	r0, #0
 80003a8:	bd30      	pop	{r4, r5, pc}
 80003aa:	ea7f 5c64 	mvns.w	ip, r4, asr #21
 80003ae:	bf1a      	itte	ne
 80003b0:	4619      	movne	r1, r3
 80003b2:	4610      	movne	r0, r2
 80003b4:	ea7f 5c65 	mvnseq.w	ip, r5, asr #21
 80003b8:	bf1c      	itt	ne
 80003ba:	460b      	movne	r3, r1
 80003bc:	4602      	movne	r2, r0
 80003be:	ea50 3401 	orrs.w	r4, r0, r1, lsl #12
 80003c2:	bf06      	itte	eq
 80003c4:	ea52 3503 	orrseq.w	r5, r2, r3, lsl #12
 80003c8:	ea91 0f03 	teqeq	r1, r3
 80003cc:	f441 2100 	orrne.w	r1, r1, #524288	; 0x80000
 80003d0:	bd30      	pop	{r4, r5, pc}
 80003d2:	bf00      	nop

080003d4 <__aeabi_ui2d>:
 80003d4:	f090 0f00 	teq	r0, #0
 80003d8:	bf04      	itt	eq
 80003da:	2100      	moveq	r1, #0
 80003dc:	4770      	bxeq	lr
 80003de:	b530      	push	{r4, r5, lr}
 80003e0:	f44f 6480 	mov.w	r4, #1024	; 0x400
 80003e4:	f104 0432 	add.w	r4, r4, #50	; 0x32
 80003e8:	f04f 0500 	mov.w	r5, #0
 80003ec:	f04f 0100 	mov.w	r1, #0
 80003f0:	e750      	b.n	8000294 <__adddf3+0x138>
 80003f2:	bf00      	nop

080003f4 <__aeabi_i2d>:
 80003f4:	f090 0f00 	teq	r0, #0
 80003f8:	bf04      	itt	eq
 80003fa:	2100      	moveq	r1, #0
 80003fc:	4770      	bxeq	lr
 80003fe:	b530      	push	{r4, r5, lr}
 8000400:	f44f 6480 	mov.w	r4, #1024	; 0x400
 8000404:	f104 0432 	add.w	r4, r4, #50	; 0x32
 8000408:	f010 4500 	ands.w	r5, r0, #2147483648	; 0x80000000
 800040c:	bf48      	it	mi
 800040e:	4240      	negmi	r0, r0
 8000410:	f04f 0100 	mov.w	r1, #0
 8000414:	e73e      	b.n	8000294 <__adddf3+0x138>
 8000416:	bf00      	nop

08000418 <__aeabi_f2d>:
 8000418:	0042      	lsls	r2, r0, #1
 800041a:	ea4f 01e2 	mov.w	r1, r2, asr #3
 800041e:	ea4f 0131 	mov.w	r1, r1, rrx
 8000422:	ea4f 7002 	mov.w	r0, r2, lsl #28
 8000426:	bf1f      	itttt	ne
 8000428:	f012 437f 	andsne.w	r3, r2, #4278190080	; 0xff000000
 800042c:	f093 4f7f 	teqne	r3, #4278190080	; 0xff000000
 8000430:	f081 5160 	eorne.w	r1, r1, #939524096	; 0x38000000
 8000434:	4770      	bxne	lr
 8000436:	f032 427f 	bics.w	r2, r2, #4278190080	; 0xff000000
 800043a:	bf08      	it	eq
 800043c:	4770      	bxeq	lr
 800043e:	f093 4f7f 	teq	r3, #4278190080	; 0xff000000
 8000442:	bf04      	itt	eq
 8000444:	f441 2100 	orreq.w	r1, r1, #524288	; 0x80000
 8000448:	4770      	bxeq	lr
 800044a:	b530      	push	{r4, r5, lr}
 800044c:	f44f 7460 	mov.w	r4, #896	; 0x380
 8000450:	f001 4500 	and.w	r5, r1, #2147483648	; 0x80000000
 8000454:	f021 4100 	bic.w	r1, r1, #2147483648	; 0x80000000
 8000458:	e71c      	b.n	8000294 <__adddf3+0x138>
 800045a:	bf00      	nop

0800045c <__aeabi_ul2d>:
 800045c:	ea50 0201 	orrs.w	r2, r0, r1
 8000460:	bf08      	it	eq
 8000462:	4770      	bxeq	lr
 8000464:	b530      	push	{r4, r5, lr}
 8000466:	f04f 0500 	mov.w	r5, #0
 800046a:	e00a      	b.n	8000482 <__aeabi_l2d+0x16>

0800046c <__aeabi_l2d>:
 800046c:	ea50 0201 	orrs.w	r2, r0, r1
 8000470:	bf08      	it	eq
 8000472:	4770      	bxeq	lr
 8000474:	b530      	push	{r4, r5, lr}
 8000476:	f011 4500 	ands.w	r5, r1, #2147483648	; 0x80000000
 800047a:	d502      	bpl.n	8000482 <__aeabi_l2d+0x16>
 800047c:	4240      	negs	r0, r0
 800047e:	eb61 0141 	sbc.w	r1, r1, r1, lsl #1
 8000482:	f44f 6480 	mov.w	r4, #1024	; 0x400
 8000486:	f104 0432 	add.w	r4, r4, #50	; 0x32
 800048a:	ea5f 5c91 	movs.w	ip, r1, lsr #22
 800048e:	f43f aed8 	beq.w	8000242 <__adddf3+0xe6>
 8000492:	f04f 0203 	mov.w	r2, #3
 8000496:	ea5f 0cdc 	movs.w	ip, ip, lsr #3
 800049a:	bf18      	it	ne
 800049c:	3203      	addne	r2, #3
 800049e:	ea5f 0cdc 	movs.w	ip, ip, lsr #3
 80004a2:	bf18      	it	ne
 80004a4:	3203      	addne	r2, #3
 80004a6:	eb02 02dc 	add.w	r2, r2, ip, lsr #3
 80004aa:	f1c2 0320 	rsb	r3, r2, #32
 80004ae:	fa00 fc03 	lsl.w	ip, r0, r3
 80004b2:	fa20 f002 	lsr.w	r0, r0, r2
 80004b6:	fa01 fe03 	lsl.w	lr, r1, r3
 80004ba:	ea40 000e 	orr.w	r0, r0, lr
 80004be:	fa21 f102 	lsr.w	r1, r1, r2
 80004c2:	4414      	add	r4, r2
 80004c4:	e6bd      	b.n	8000242 <__adddf3+0xe6>
 80004c6:	bf00      	nop

080004c8 <__aeabi_dmul>:
 80004c8:	b570      	push	{r4, r5, r6, lr}
 80004ca:	f04f 0cff 	mov.w	ip, #255	; 0xff
 80004ce:	f44c 6ce0 	orr.w	ip, ip, #1792	; 0x700
 80004d2:	ea1c 5411 	ands.w	r4, ip, r1, lsr #20
 80004d6:	bf1d      	ittte	ne
 80004d8:	ea1c 5513 	andsne.w	r5, ip, r3, lsr #20
 80004dc:	ea94 0f0c 	teqne	r4, ip
 80004e0:	ea95 0f0c 	teqne	r5, ip
 80004e4:	f000 f8de 	bleq	80006a4 <__aeabi_dmul+0x1dc>
 80004e8:	442c      	add	r4, r5
 80004ea:	ea81 0603 	eor.w	r6, r1, r3
 80004ee:	ea21 514c 	bic.w	r1, r1, ip, lsl #21
 80004f2:	ea23 534c 	bic.w	r3, r3, ip, lsl #21
 80004f6:	ea50 3501 	orrs.w	r5, r0, r1, lsl #12
 80004fa:	bf18      	it	ne
 80004fc:	ea52 3503 	orrsne.w	r5, r2, r3, lsl #12
 8000500:	f441 1180 	orr.w	r1, r1, #1048576	; 0x100000
 8000504:	f443 1380 	orr.w	r3, r3, #1048576	; 0x100000
 8000508:	d038      	beq.n	800057c <__aeabi_dmul+0xb4>
 800050a:	fba0 ce02 	umull	ip, lr, r0, r2
 800050e:	f04f 0500 	mov.w	r5, #0
 8000512:	fbe1 e502 	umlal	lr, r5, r1, r2
 8000516:	f006 4200 	and.w	r2, r6, #2147483648	; 0x80000000
 800051a:	fbe0 e503 	umlal	lr, r5, r0, r3
 800051e:	f04f 0600 	mov.w	r6, #0
 8000522:	fbe1 5603 	umlal	r5, r6, r1, r3
 8000526:	f09c 0f00 	teq	ip, #0
 800052a:	bf18      	it	ne
 800052c:	f04e 0e01 	orrne.w	lr, lr, #1
 8000530:	f1a4 04ff 	sub.w	r4, r4, #255	; 0xff
 8000534:	f5b6 7f00 	cmp.w	r6, #512	; 0x200
 8000538:	f564 7440 	sbc.w	r4, r4, #768	; 0x300
 800053c:	d204      	bcs.n	8000548 <__aeabi_dmul+0x80>
 800053e:	ea5f 0e4e 	movs.w	lr, lr, lsl #1
 8000542:	416d      	adcs	r5, r5
 8000544:	eb46 0606 	adc.w	r6, r6, r6
 8000548:	ea42 21c6 	orr.w	r1, r2, r6, lsl #11
 800054c:	ea41 5155 	orr.w	r1, r1, r5, lsr #21
 8000550:	ea4f 20c5 	mov.w	r0, r5, lsl #11
 8000554:	ea40 505e 	orr.w	r0, r0, lr, lsr #21
 8000558:	ea4f 2ece 	mov.w	lr, lr, lsl #11
 800055c:	f1b4 0cfd 	subs.w	ip, r4, #253	; 0xfd
 8000560:	bf88      	it	hi
 8000562:	f5bc 6fe0 	cmphi.w	ip, #1792	; 0x700
 8000566:	d81e      	bhi.n	80005a6 <__aeabi_dmul+0xde>
 8000568:	f1be 4f00 	cmp.w	lr, #2147483648	; 0x80000000
 800056c:	bf08      	it	eq
 800056e:	ea5f 0e50 	movseq.w	lr, r0, lsr #1
 8000572:	f150 0000 	adcs.w	r0, r0, #0
 8000576:	eb41 5104 	adc.w	r1, r1, r4, lsl #20
 800057a:	bd70      	pop	{r4, r5, r6, pc}
 800057c:	f006 4600 	and.w	r6, r6, #2147483648	; 0x80000000
 8000580:	ea46 0101 	orr.w	r1, r6, r1
 8000584:	ea40 0002 	orr.w	r0, r0, r2
 8000588:	ea81 0103 	eor.w	r1, r1, r3
 800058c:	ebb4 045c 	subs.w	r4, r4, ip, lsr #1
 8000590:	bfc2      	ittt	gt
 8000592:	ebd4 050c 	rsbsgt	r5, r4, ip
 8000596:	ea41 5104 	orrgt.w	r1, r1, r4, lsl #20
 800059a:	bd70      	popgt	{r4, r5, r6, pc}
 800059c:	f441 1180 	orr.w	r1, r1, #1048576	; 0x100000
 80005a0:	f04f 0e00 	mov.w	lr, #0
 80005a4:	3c01      	subs	r4, #1
 80005a6:	f300 80ab 	bgt.w	8000700 <__aeabi_dmul+0x238>
 80005aa:	f114 0f36 	cmn.w	r4, #54	; 0x36
 80005ae:	bfde      	ittt	le
 80005b0:	2000      	movle	r0, #0
 80005b2:	f001 4100 	andle.w	r1, r1, #2147483648	; 0x80000000
 80005b6:	bd70      	pople	{r4, r5, r6, pc}
 80005b8:	f1c4 0400 	rsb	r4, r4, #0
 80005bc:	3c20      	subs	r4, #32
 80005be:	da35      	bge.n	800062c <__aeabi_dmul+0x164>
 80005c0:	340c      	adds	r4, #12
 80005c2:	dc1b      	bgt.n	80005fc <__aeabi_dmul+0x134>
 80005c4:	f104 0414 	add.w	r4, r4, #20
 80005c8:	f1c4 0520 	rsb	r5, r4, #32
 80005cc:	fa00 f305 	lsl.w	r3, r0, r5
 80005d0:	fa20 f004 	lsr.w	r0, r0, r4
 80005d4:	fa01 f205 	lsl.w	r2, r1, r5
 80005d8:	ea40 0002 	orr.w	r0, r0, r2
 80005dc:	f001 4200 	and.w	r2, r1, #2147483648	; 0x80000000
 80005e0:	f021 4100 	bic.w	r1, r1, #2147483648	; 0x80000000
 80005e4:	eb10 70d3 	adds.w	r0, r0, r3, lsr #31
 80005e8:	fa21 f604 	lsr.w	r6, r1, r4
 80005ec:	eb42 0106 	adc.w	r1, r2, r6
 80005f0:	ea5e 0e43 	orrs.w	lr, lr, r3, lsl #1
 80005f4:	bf08      	it	eq
 80005f6:	ea20 70d3 	biceq.w	r0, r0, r3, lsr #31
 80005fa:	bd70      	pop	{r4, r5, r6, pc}
 80005fc:	f1c4 040c 	rsb	r4, r4, #12
 8000600:	f1c4 0520 	rsb	r5, r4, #32
 8000604:	fa00 f304 	lsl.w	r3, r0, r4
 8000608:	fa20 f005 	lsr.w	r0, r0, r5
 800060c:	fa01 f204 	lsl.w	r2, r1, r4
 8000610:	ea40 0002 	orr.w	r0, r0, r2
 8000614:	f001 4100 	and.w	r1, r1, #2147483648	; 0x80000000
 8000618:	eb10 70d3 	adds.w	r0, r0, r3, lsr #31
 800061c:	f141 0100 	adc.w	r1, r1, #0
 8000620:	ea5e 0e43 	orrs.w	lr, lr, r3, lsl #1
 8000624:	bf08      	it	eq
 8000626:	ea20 70d3 	biceq.w	r0, r0, r3, lsr #31
 800062a:	bd70      	pop	{r4, r5, r6, pc}
 800062c:	f1c4 0520 	rsb	r5, r4, #32
 8000630:	fa00 f205 	lsl.w	r2, r0, r5
 8000634:	ea4e 0e02 	orr.w	lr, lr, r2
 8000638:	fa20 f304 	lsr.w	r3, r0, r4
 800063c:	fa01 f205 	lsl.w	r2, r1, r5
 8000640:	ea43 0302 	orr.w	r3, r3, r2
 8000644:	fa21 f004 	lsr.w	r0, r1, r4
 8000648:	f001 4100 	and.w	r1, r1, #2147483648	; 0x80000000
 800064c:	fa21 f204 	lsr.w	r2, r1, r4
 8000650:	ea20 0002 	bic.w	r0, r0, r2
 8000654:	eb00 70d3 	add.w	r0, r0, r3, lsr #31
 8000658:	ea5e 0e43 	orrs.w	lr, lr, r3, lsl #1
 800065c:	bf08      	it	eq
 800065e:	ea20 70d3 	biceq.w	r0, r0, r3, lsr #31
 8000662:	bd70      	pop	{r4, r5, r6, pc}
 8000664:	f094 0f00 	teq	r4, #0
 8000668:	d10f      	bne.n	800068a <__aeabi_dmul+0x1c2>
 800066a:	f001 4600 	and.w	r6, r1, #2147483648	; 0x80000000
 800066e:	0040      	lsls	r0, r0, #1
 8000670:	eb41 0101 	adc.w	r1, r1, r1
 8000674:	f411 1f80 	tst.w	r1, #1048576	; 0x100000
 8000678:	bf08      	it	eq
 800067a:	3c01      	subeq	r4, #1
 800067c:	d0f7      	beq.n	800066e <__aeabi_dmul+0x1a6>
 800067e:	ea41 0106 	orr.w	r1, r1, r6
 8000682:	f095 0f00 	teq	r5, #0
 8000686:	bf18      	it	ne
 8000688:	4770      	bxne	lr
 800068a:	f003 4600 	and.w	r6, r3, #2147483648	; 0x80000000
 800068e:	0052      	lsls	r2, r2, #1
 8000690:	eb43 0303 	adc.w	r3, r3, r3
 8000694:	f413 1f80 	tst.w	r3, #1048576	; 0x100000
 8000698:	bf08      	it	eq
 800069a:	3d01      	subeq	r5, #1
 800069c:	d0f7      	beq.n	800068e <__aeabi_dmul+0x1c6>
 800069e:	ea43 0306 	orr.w	r3, r3, r6
 80006a2:	4770      	bx	lr
 80006a4:	ea94 0f0c 	teq	r4, ip
 80006a8:	ea0c 5513 	and.w	r5, ip, r3, lsr #20
 80006ac:	bf18      	it	ne
 80006ae:	ea95 0f0c 	teqne	r5, ip
 80006b2:	d00c      	beq.n	80006ce <__aeabi_dmul+0x206>
 80006b4:	ea50 0641 	orrs.w	r6, r0, r1, lsl #1
 80006b8:	bf18      	it	ne
 80006ba:	ea52 0643 	orrsne.w	r6, r2, r3, lsl #1
 80006be:	d1d1      	bne.n	8000664 <__aeabi_dmul+0x19c>
 80006c0:	ea81 0103 	eor.w	r1, r1, r3
 80006c4:	f001 4100 	and.w	r1, r1, #2147483648	; 0x80000000
 80006c8:	f04f 0000 	mov.w	r0, #0
 80006cc:	bd70      	pop	{r4, r5, r6, pc}
 80006ce:	ea50 0641 	orrs.w	r6, r0, r1, lsl #1
 80006d2:	bf06      	itte	eq
 80006d4:	4610      	moveq	r0, r2
 80006d6:	4619      	moveq	r1, r3
 80006d8:	ea52 0643 	orrsne.w	r6, r2, r3, lsl #1
 80006dc:	d019      	beq.n	8000712 <__aeabi_dmul+0x24a>
 80006de:	ea94 0f0c 	teq	r4, ip
 80006e2:	d102      	bne.n	80006ea <__aeabi_dmul+0x222>
 80006e4:	ea50 3601 	orrs.w	r6, r0, r1, lsl #12
 80006e8:	d113      	bne.n	8000712 <__aeabi_dmul+0x24a>
 80006ea:	ea95 0f0c 	teq	r5, ip
 80006ee:	d105      	bne.n	80006fc <__aeabi_dmul+0x234>
 80006f0:	ea52 3603 	orrs.w	r6, r2, r3, lsl #12
 80006f4:	bf1c      	itt	ne
 80006f6:	4610      	movne	r0, r2
 80006f8:	4619      	movne	r1, r3
 80006fa:	d10a      	bne.n	8000712 <__aeabi_dmul+0x24a>
 80006fc:	ea81 0103 	eor.w	r1, r1, r3
 8000700:	f001 4100 	and.w	r1, r1, #2147483648	; 0x80000000
 8000704:	f041 41fe 	orr.w	r1, r1, #2130706432	; 0x7f000000
 8000708:	f441 0170 	orr.w	r1, r1, #15728640	; 0xf00000
 800070c:	f04f 0000 	mov.w	r0, #0
 8000710:	bd70      	pop	{r4, r5, r6, pc}
 8000712:	f041 41fe 	orr.w	r1, r1, #2130706432	; 0x7f000000
 8000716:	f441 0178 	orr.w	r1, r1, #16252928	; 0xf80000
 800071a:	bd70      	pop	{r4, r5, r6, pc}

0800071c <__aeabi_ddiv>:
 800071c:	b570      	push	{r4, r5, r6, lr}
 800071e:	f04f 0cff 	mov.w	ip, #255	; 0xff
 8000722:	f44c 6ce0 	orr.w	ip, ip, #1792	; 0x700
 8000726:	ea1c 5411 	ands.w	r4, ip, r1, lsr #20
 800072a:	bf1d      	ittte	ne
 800072c:	ea1c 5513 	andsne.w	r5, ip, r3, lsr #20
 8000730:	ea94 0f0c 	teqne	r4, ip
 8000734:	ea95 0f0c 	teqne	r5, ip
 8000738:	f000 f8a7 	bleq	800088a <__aeabi_ddiv+0x16e>
 800073c:	eba4 0405 	sub.w	r4, r4, r5
 8000740:	ea81 0e03 	eor.w	lr, r1, r3
 8000744:	ea52 3503 	orrs.w	r5, r2, r3, lsl #12
 8000748:	ea4f 3101 	mov.w	r1, r1, lsl #12
 800074c:	f000 8088 	beq.w	8000860 <__aeabi_ddiv+0x144>
 8000750:	ea4f 3303 	mov.w	r3, r3, lsl #12
 8000754:	f04f 5580 	mov.w	r5, #268435456	; 0x10000000
 8000758:	ea45 1313 	orr.w	r3, r5, r3, lsr #4
 800075c:	ea43 6312 	orr.w	r3, r3, r2, lsr #24
 8000760:	ea4f 2202 	mov.w	r2, r2, lsl #8
 8000764:	ea45 1511 	orr.w	r5, r5, r1, lsr #4
 8000768:	ea45 6510 	orr.w	r5, r5, r0, lsr #24
 800076c:	ea4f 2600 	mov.w	r6, r0, lsl #8
 8000770:	f00e 4100 	and.w	r1, lr, #2147483648	; 0x80000000
 8000774:	429d      	cmp	r5, r3
 8000776:	bf08      	it	eq
 8000778:	4296      	cmpeq	r6, r2
 800077a:	f144 04fd 	adc.w	r4, r4, #253	; 0xfd
 800077e:	f504 7440 	add.w	r4, r4, #768	; 0x300
 8000782:	d202      	bcs.n	800078a <__aeabi_ddiv+0x6e>
 8000784:	085b      	lsrs	r3, r3, #1
 8000786:	ea4f 0232 	mov.w	r2, r2, rrx
 800078a:	1ab6      	subs	r6, r6, r2
 800078c:	eb65 0503 	sbc.w	r5, r5, r3
 8000790:	085b      	lsrs	r3, r3, #1
 8000792:	ea4f 0232 	mov.w	r2, r2, rrx
 8000796:	f44f 1080 	mov.w	r0, #1048576	; 0x100000
 800079a:	f44f 2c00 	mov.w	ip, #524288	; 0x80000
 800079e:	ebb6 0e02 	subs.w	lr, r6, r2
 80007a2:	eb75 0e03 	sbcs.w	lr, r5, r3
 80007a6:	bf22      	ittt	cs
 80007a8:	1ab6      	subcs	r6, r6, r2
 80007aa:	4675      	movcs	r5, lr
 80007ac:	ea40 000c 	orrcs.w	r0, r0, ip
 80007b0:	085b      	lsrs	r3, r3, #1
 80007b2:	ea4f 0232 	mov.w	r2, r2, rrx
 80007b6:	ebb6 0e02 	subs.w	lr, r6, r2
 80007ba:	eb75 0e03 	sbcs.w	lr, r5, r3
 80007be:	bf22      	ittt	cs
 80007c0:	1ab6      	subcs	r6, r6, r2
 80007c2:	4675      	movcs	r5, lr
 80007c4:	ea40 005c 	orrcs.w	r0, r0, ip, lsr #1
 80007c8:	085b      	lsrs	r3, r3, #1
 80007ca:	ea4f 0232 	mov.w	r2, r2, rrx
 80007ce:	ebb6 0e02 	subs.w	lr, r6, r2
 80007d2:	eb75 0e03 	sbcs.w	lr, r5, r3
 80007d6:	bf22      	ittt	cs
 80007d8:	1ab6      	subcs	r6, r6, r2
 80007da:	4675      	movcs	r5, lr
 80007dc:	ea40 009c 	orrcs.w	r0, r0, ip, lsr #2
 80007e0:	085b      	lsrs	r3, r3, #1
 80007e2:	ea4f 0232 	mov.w	r2, r2, rrx
 80007e6:	ebb6 0e02 	subs.w	lr, r6, r2
 80007ea:	eb75 0e03 	sbcs.w	lr, r5, r3
 80007ee:	bf22      	ittt	cs
 80007f0:	1ab6      	subcs	r6, r6, r2
 80007f2:	4675      	movcs	r5, lr
 80007f4:	ea40 00dc 	orrcs.w	r0, r0, ip, lsr #3
 80007f8:	ea55 0e06 	orrs.w	lr, r5, r6
 80007fc:	d018      	beq.n	8000830 <__aeabi_ddiv+0x114>
 80007fe:	ea4f 1505 	mov.w	r5, r5, lsl #4
 8000802:	ea45 7516 	orr.w	r5, r5, r6, lsr #28
 8000806:	ea4f 1606 	mov.w	r6, r6, lsl #4
 800080a:	ea4f 03c3 	mov.w	r3, r3, lsl #3
 800080e:	ea43 7352 	orr.w	r3, r3, r2, lsr #29
 8000812:	ea4f 02c2 	mov.w	r2, r2, lsl #3
 8000816:	ea5f 1c1c 	movs.w	ip, ip, lsr #4
 800081a:	d1c0      	bne.n	800079e <__aeabi_ddiv+0x82>
 800081c:	f411 1f80 	tst.w	r1, #1048576	; 0x100000
 8000820:	d10b      	bne.n	800083a <__aeabi_ddiv+0x11e>
 8000822:	ea41 0100 	orr.w	r1, r1, r0
 8000826:	f04f 0000 	mov.w	r0, #0
 800082a:	f04f 4c00 	mov.w	ip, #2147483648	; 0x80000000
 800082e:	e7b6      	b.n	800079e <__aeabi_ddiv+0x82>
 8000830:	f411 1f80 	tst.w	r1, #1048576	; 0x100000
 8000834:	bf04      	itt	eq
 8000836:	4301      	orreq	r1, r0
 8000838:	2000      	moveq	r0, #0
 800083a:	f1b4 0cfd 	subs.w	ip, r4, #253	; 0xfd
 800083e:	bf88      	it	hi
 8000840:	f5bc 6fe0 	cmphi.w	ip, #1792	; 0x700
 8000844:	f63f aeaf 	bhi.w	80005a6 <__aeabi_dmul+0xde>
 8000848:	ebb5 0c03 	subs.w	ip, r5, r3
 800084c:	bf04      	itt	eq
 800084e:	ebb6 0c02 	subseq.w	ip, r6, r2
 8000852:	ea5f 0c50 	movseq.w	ip, r0, lsr #1
 8000856:	f150 0000 	adcs.w	r0, r0, #0
 800085a:	eb41 5104 	adc.w	r1, r1, r4, lsl #20
 800085e:	bd70      	pop	{r4, r5, r6, pc}
 8000860:	f00e 4e00 	and.w	lr, lr, #2147483648	; 0x80000000
 8000864:	ea4e 3111 	orr.w	r1, lr, r1, lsr #12
 8000868:	eb14 045c 	adds.w	r4, r4, ip, lsr #1
 800086c:	bfc2      	ittt	gt
 800086e:	ebd4 050c 	rsbsgt	r5, r4, ip
 8000872:	ea41 5104 	orrgt.w	r1, r1, r4, lsl #20
 8000876:	bd70      	popgt	{r4, r5, r6, pc}
 8000878:	f441 1180 	orr.w	r1, r1, #1048576	; 0x100000
 800087c:	f04f 0e00 	mov.w	lr, #0
 8000880:	3c01      	subs	r4, #1
 8000882:	e690      	b.n	80005a6 <__aeabi_dmul+0xde>
 8000884:	ea45 0e06 	orr.w	lr, r5, r6
 8000888:	e68d      	b.n	80005a6 <__aeabi_dmul+0xde>
 800088a:	ea0c 5513 	and.w	r5, ip, r3, lsr #20
 800088e:	ea94 0f0c 	teq	r4, ip
 8000892:	bf08      	it	eq
 8000894:	ea95 0f0c 	teqeq	r5, ip
 8000898:	f43f af3b 	beq.w	8000712 <__aeabi_dmul+0x24a>
 800089c:	ea94 0f0c 	teq	r4, ip
 80008a0:	d10a      	bne.n	80008b8 <__aeabi_ddiv+0x19c>
 80008a2:	ea50 3401 	orrs.w	r4, r0, r1, lsl #12
 80008a6:	f47f af34 	bne.w	8000712 <__aeabi_dmul+0x24a>
 80008aa:	ea95 0f0c 	teq	r5, ip
 80008ae:	f47f af25 	bne.w	80006fc <__aeabi_dmul+0x234>
 80008b2:	4610      	mov	r0, r2
 80008b4:	4619      	mov	r1, r3
 80008b6:	e72c      	b.n	8000712 <__aeabi_dmul+0x24a>
 80008b8:	ea95 0f0c 	teq	r5, ip
 80008bc:	d106      	bne.n	80008cc <__aeabi_ddiv+0x1b0>
 80008be:	ea52 3503 	orrs.w	r5, r2, r3, lsl #12
 80008c2:	f43f aefd 	beq.w	80006c0 <__aeabi_dmul+0x1f8>
 80008c6:	4610      	mov	r0, r2
 80008c8:	4619      	mov	r1, r3
 80008ca:	e722      	b.n	8000712 <__aeabi_dmul+0x24a>
 80008cc:	ea50 0641 	orrs.w	r6, r0, r1, lsl #1
 80008d0:	bf18      	it	ne
 80008d2:	ea52 0643 	orrsne.w	r6, r2, r3, lsl #1
 80008d6:	f47f aec5 	bne.w	8000664 <__aeabi_dmul+0x19c>
 80008da:	ea50 0441 	orrs.w	r4, r0, r1, lsl #1
 80008de:	f47f af0d 	bne.w	80006fc <__aeabi_dmul+0x234>
 80008e2:	ea52 0543 	orrs.w	r5, r2, r3, lsl #1
 80008e6:	f47f aeeb 	bne.w	80006c0 <__aeabi_dmul+0x1f8>
 80008ea:	e712      	b.n	8000712 <__aeabi_dmul+0x24a>

080008ec <__gedf2>:
 80008ec:	f04f 3cff 	mov.w	ip, #4294967295
 80008f0:	e006      	b.n	8000900 <__cmpdf2+0x4>
 80008f2:	bf00      	nop

080008f4 <__ledf2>:
 80008f4:	f04f 0c01 	mov.w	ip, #1
 80008f8:	e002      	b.n	8000900 <__cmpdf2+0x4>
 80008fa:	bf00      	nop

080008fc <__cmpdf2>:
 80008fc:	f04f 0c01 	mov.w	ip, #1
 8000900:	f84d cd04 	str.w	ip, [sp, #-4]!
 8000904:	ea4f 0c41 	mov.w	ip, r1, lsl #1
 8000908:	ea7f 5c6c 	mvns.w	ip, ip, asr #21
 800090c:	ea4f 0c43 	mov.w	ip, r3, lsl #1
 8000910:	bf18      	it	ne
 8000912:	ea7f 5c6c 	mvnsne.w	ip, ip, asr #21
 8000916:	d01b      	beq.n	8000950 <__cmpdf2+0x54>
 8000918:	b001      	add	sp, #4
 800091a:	ea50 0c41 	orrs.w	ip, r0, r1, lsl #1
 800091e:	bf0c      	ite	eq
 8000920:	ea52 0c43 	orrseq.w	ip, r2, r3, lsl #1
 8000924:	ea91 0f03 	teqne	r1, r3
 8000928:	bf02      	ittt	eq
 800092a:	ea90 0f02 	teqeq	r0, r2
 800092e:	2000      	moveq	r0, #0
 8000930:	4770      	bxeq	lr
 8000932:	f110 0f00 	cmn.w	r0, #0
 8000936:	ea91 0f03 	teq	r1, r3
 800093a:	bf58      	it	pl
 800093c:	4299      	cmppl	r1, r3
 800093e:	bf08      	it	eq
 8000940:	4290      	cmpeq	r0, r2
 8000942:	bf2c      	ite	cs
 8000944:	17d8      	asrcs	r0, r3, #31
 8000946:	ea6f 70e3 	mvncc.w	r0, r3, asr #31
 800094a:	f040 0001 	orr.w	r0, r0, #1
 800094e:	4770      	bx	lr
 8000950:	ea4f 0c41 	mov.w	ip, r1, lsl #1
 8000954:	ea7f 5c6c 	mvns.w	ip, ip, asr #21
 8000958:	d102      	bne.n	8000960 <__cmpdf2+0x64>
 800095a:	ea50 3c01 	orrs.w	ip, r0, r1, lsl #12
 800095e:	d107      	bne.n	8000970 <__cmpdf2+0x74>
 8000960:	ea4f 0c43 	mov.w	ip, r3, lsl #1
 8000964:	ea7f 5c6c 	mvns.w	ip, ip, asr #21
 8000968:	d1d6      	bne.n	8000918 <__cmpdf2+0x1c>
 800096a:	ea52 3c03 	orrs.w	ip, r2, r3, lsl #12
 800096e:	d0d3      	beq.n	8000918 <__cmpdf2+0x1c>
 8000970:	f85d 0b04 	ldr.w	r0, [sp], #4
 8000974:	4770      	bx	lr
 8000976:	bf00      	nop

08000978 <__aeabi_cdrcmple>:
 8000978:	4684      	mov	ip, r0
 800097a:	4610      	mov	r0, r2
 800097c:	4662      	mov	r2, ip
 800097e:	468c      	mov	ip, r1
 8000980:	4619      	mov	r1, r3
 8000982:	4663      	mov	r3, ip
 8000984:	e000      	b.n	8000988 <__aeabi_cdcmpeq>
 8000986:	bf00      	nop

08000988 <__aeabi_cdcmpeq>:
 8000988:	b501      	push	{r0, lr}
 800098a:	f7ff ffb7 	bl	80008fc <__cmpdf2>
 800098e:	2800      	cmp	r0, #0
 8000990:	bf48      	it	mi
 8000992:	f110 0f00 	cmnmi.w	r0, #0
 8000996:	bd01      	pop	{r0, pc}

08000998 <__aeabi_dcmpeq>:
 8000998:	f84d ed08 	str.w	lr, [sp, #-8]!
 800099c:	f7ff fff4 	bl	8000988 <__aeabi_cdcmpeq>
 80009a0:	bf0c      	ite	eq
 80009a2:	2001      	moveq	r0, #1
 80009a4:	2000      	movne	r0, #0
 80009a6:	f85d fb08 	ldr.w	pc, [sp], #8
 80009aa:	bf00      	nop

080009ac <__aeabi_dcmplt>:
 80009ac:	f84d ed08 	str.w	lr, [sp, #-8]!
 80009b0:	f7ff ffea 	bl	8000988 <__aeabi_cdcmpeq>
 80009b4:	bf34      	ite	cc
 80009b6:	2001      	movcc	r0, #1
 80009b8:	2000      	movcs	r0, #0
 80009ba:	f85d fb08 	ldr.w	pc, [sp], #8
 80009be:	bf00      	nop

080009c0 <__aeabi_dcmple>:
 80009c0:	f84d ed08 	str.w	lr, [sp, #-8]!
 80009c4:	f7ff ffe0 	bl	8000988 <__aeabi_cdcmpeq>
 80009c8:	bf94      	ite	ls
 80009ca:	2001      	movls	r0, #1
 80009cc:	2000      	movhi	r0, #0
 80009ce:	f85d fb08 	ldr.w	pc, [sp], #8
 80009d2:	bf00      	nop

080009d4 <__aeabi_dcmpge>:
 80009d4:	f84d ed08 	str.w	lr, [sp, #-8]!
 80009d8:	f7ff ffce 	bl	8000978 <__aeabi_cdrcmple>
 80009dc:	bf94      	ite	ls
 80009de:	2001      	movls	r0, #1
 80009e0:	2000      	movhi	r0, #0
 80009e2:	f85d fb08 	ldr.w	pc, [sp], #8
 80009e6:	bf00      	nop

080009e8 <__aeabi_dcmpgt>:
 80009e8:	f84d ed08 	str.w	lr, [sp, #-8]!
 80009ec:	f7ff ffc4 	bl	8000978 <__aeabi_cdrcmple>
 80009f0:	bf34      	ite	cc
 80009f2:	2001      	movcc	r0, #1
 80009f4:	2000      	movcs	r0, #0
 80009f6:	f85d fb08 	ldr.w	pc, [sp], #8
 80009fa:	bf00      	nop

080009fc <__aeabi_dcmpun>:
 80009fc:	ea4f 0c41 	mov.w	ip, r1, lsl #1
 8000a00:	ea7f 5c6c 	mvns.w	ip, ip, asr #21
 8000a04:	d102      	bne.n	8000a0c <__aeabi_dcmpun+0x10>
 8000a06:	ea50 3c01 	orrs.w	ip, r0, r1, lsl #12
 8000a0a:	d10a      	bne.n	8000a22 <__aeabi_dcmpun+0x26>
 8000a0c:	ea4f 0c43 	mov.w	ip, r3, lsl #1
 8000a10:	ea7f 5c6c 	mvns.w	ip, ip, asr #21
 8000a14:	d102      	bne.n	8000a1c <__aeabi_dcmpun+0x20>
 8000a16:	ea52 3c03 	orrs.w	ip, r2, r3, lsl #12
 8000a1a:	d102      	bne.n	8000a22 <__aeabi_dcmpun+0x26>
 8000a1c:	f04f 0000 	mov.w	r0, #0
 8000a20:	4770      	bx	lr
 8000a22:	f04f 0001 	mov.w	r0, #1
 8000a26:	4770      	bx	lr

08000a28 <__aeabi_d2f>:
 8000a28:	ea4f 0241 	mov.w	r2, r1, lsl #1
 8000a2c:	f1b2 43e0 	subs.w	r3, r2, #1879048192	; 0x70000000
 8000a30:	bf24      	itt	cs
 8000a32:	f5b3 1c00 	subscs.w	ip, r3, #2097152	; 0x200000
 8000a36:	f1dc 5cfe 	rsbscs	ip, ip, #532676608	; 0x1fc00000
 8000a3a:	d90d      	bls.n	8000a58 <__aeabi_d2f+0x30>
 8000a3c:	f001 4c00 	and.w	ip, r1, #2147483648	; 0x80000000
 8000a40:	ea4f 02c0 	mov.w	r2, r0, lsl #3
 8000a44:	ea4c 7050 	orr.w	r0, ip, r0, lsr #29
 8000a48:	f1b2 4f00 	cmp.w	r2, #2147483648	; 0x80000000
 8000a4c:	eb40 0083 	adc.w	r0, r0, r3, lsl #2
 8000a50:	bf08      	it	eq
 8000a52:	f020 0001 	biceq.w	r0, r0, #1
 8000a56:	4770      	bx	lr
 8000a58:	f011 4f80 	tst.w	r1, #1073741824	; 0x40000000
 8000a5c:	d121      	bne.n	8000aa2 <__aeabi_d2f+0x7a>
 8000a5e:	f113 7238 	adds.w	r2, r3, #48234496	; 0x2e00000
 8000a62:	bfbc      	itt	lt
 8000a64:	f001 4000 	andlt.w	r0, r1, #2147483648	; 0x80000000
 8000a68:	4770      	bxlt	lr
 8000a6a:	f441 1180 	orr.w	r1, r1, #1048576	; 0x100000
 8000a6e:	ea4f 5252 	mov.w	r2, r2, lsr #21
 8000a72:	f1c2 0218 	rsb	r2, r2, #24
 8000a76:	f1c2 0c20 	rsb	ip, r2, #32
 8000a7a:	fa10 f30c 	lsls.w	r3, r0, ip
 8000a7e:	fa20 f002 	lsr.w	r0, r0, r2
 8000a82:	bf18      	it	ne
 8000a84:	f040 0001 	orrne.w	r0, r0, #1
 8000a88:	ea4f 23c1 	mov.w	r3, r1, lsl #11
 8000a8c:	ea4f 23d3 	mov.w	r3, r3, lsr #11
 8000a90:	fa03 fc0c 	lsl.w	ip, r3, ip
 8000a94:	ea40 000c 	orr.w	r0, r0, ip
 8000a98:	fa23 f302 	lsr.w	r3, r3, r2
 8000a9c:	ea4f 0343 	mov.w	r3, r3, lsl #1
 8000aa0:	e7cc      	b.n	8000a3c <__aeabi_d2f+0x14>
 8000aa2:	ea7f 5362 	mvns.w	r3, r2, asr #21
 8000aa6:	d107      	bne.n	8000ab8 <__aeabi_d2f+0x90>
 8000aa8:	ea50 3301 	orrs.w	r3, r0, r1, lsl #12
 8000aac:	bf1e      	ittt	ne
 8000aae:	f04f 40fe 	movne.w	r0, #2130706432	; 0x7f000000
 8000ab2:	f440 0040 	orrne.w	r0, r0, #12582912	; 0xc00000
 8000ab6:	4770      	bxne	lr
 8000ab8:	f001 4000 	and.w	r0, r1, #2147483648	; 0x80000000
 8000abc:	f040 40fe 	orr.w	r0, r0, #2130706432	; 0x7f000000
 8000ac0:	f440 0000 	orr.w	r0, r0, #8388608	; 0x800000
 8000ac4:	4770      	bx	lr
 8000ac6:	bf00      	nop

08000ac8 <__aeabi_frsub>:
 8000ac8:	f080 4000 	eor.w	r0, r0, #2147483648	; 0x80000000
 8000acc:	e002      	b.n	8000ad4 <__addsf3>
 8000ace:	bf00      	nop

08000ad0 <__aeabi_fsub>:
 8000ad0:	f081 4100 	eor.w	r1, r1, #2147483648	; 0x80000000

08000ad4 <__addsf3>:
 8000ad4:	0042      	lsls	r2, r0, #1
 8000ad6:	bf1f      	itttt	ne
 8000ad8:	ea5f 0341 	movsne.w	r3, r1, lsl #1
 8000adc:	ea92 0f03 	teqne	r2, r3
 8000ae0:	ea7f 6c22 	mvnsne.w	ip, r2, asr #24
 8000ae4:	ea7f 6c23 	mvnsne.w	ip, r3, asr #24
 8000ae8:	d06a      	beq.n	8000bc0 <__addsf3+0xec>
 8000aea:	ea4f 6212 	mov.w	r2, r2, lsr #24
 8000aee:	ebd2 6313 	rsbs	r3, r2, r3, lsr #24
 8000af2:	bfc1      	itttt	gt
 8000af4:	18d2      	addgt	r2, r2, r3
 8000af6:	4041      	eorgt	r1, r0
 8000af8:	4048      	eorgt	r0, r1
 8000afa:	4041      	eorgt	r1, r0
 8000afc:	bfb8      	it	lt
 8000afe:	425b      	neglt	r3, r3
 8000b00:	2b19      	cmp	r3, #25
 8000b02:	bf88      	it	hi
 8000b04:	4770      	bxhi	lr
 8000b06:	f010 4f00 	tst.w	r0, #2147483648	; 0x80000000
 8000b0a:	f440 0000 	orr.w	r0, r0, #8388608	; 0x800000
 8000b0e:	f020 407f 	bic.w	r0, r0, #4278190080	; 0xff000000
 8000b12:	bf18      	it	ne
 8000b14:	4240      	negne	r0, r0
 8000b16:	f011 4f00 	tst.w	r1, #2147483648	; 0x80000000
 8000b1a:	f441 0100 	orr.w	r1, r1, #8388608	; 0x800000
 8000b1e:	f021 417f 	bic.w	r1, r1, #4278190080	; 0xff000000
 8000b22:	bf18      	it	ne
 8000b24:	4249      	negne	r1, r1
 8000b26:	ea92 0f03 	teq	r2, r3
 8000b2a:	d03f      	beq.n	8000bac <__addsf3+0xd8>
 8000b2c:	f1a2 0201 	sub.w	r2, r2, #1
 8000b30:	fa41 fc03 	asr.w	ip, r1, r3
 8000b34:	eb10 000c 	adds.w	r0, r0, ip
 8000b38:	f1c3 0320 	rsb	r3, r3, #32
 8000b3c:	fa01 f103 	lsl.w	r1, r1, r3
 8000b40:	f000 4300 	and.w	r3, r0, #2147483648	; 0x80000000
 8000b44:	d502      	bpl.n	8000b4c <__addsf3+0x78>
 8000b46:	4249      	negs	r1, r1
 8000b48:	eb60 0040 	sbc.w	r0, r0, r0, lsl #1
 8000b4c:	f5b0 0f00 	cmp.w	r0, #8388608	; 0x800000
 8000b50:	d313      	bcc.n	8000b7a <__addsf3+0xa6>
 8000b52:	f1b0 7f80 	cmp.w	r0, #16777216	; 0x1000000
 8000b56:	d306      	bcc.n	8000b66 <__addsf3+0x92>
 8000b58:	0840      	lsrs	r0, r0, #1
 8000b5a:	ea4f 0131 	mov.w	r1, r1, rrx
 8000b5e:	f102 0201 	add.w	r2, r2, #1
 8000b62:	2afe      	cmp	r2, #254	; 0xfe
 8000b64:	d251      	bcs.n	8000c0a <__addsf3+0x136>
 8000b66:	f1b1 4f00 	cmp.w	r1, #2147483648	; 0x80000000
 8000b6a:	eb40 50c2 	adc.w	r0, r0, r2, lsl #23
 8000b6e:	bf08      	it	eq
 8000b70:	f020 0001 	biceq.w	r0, r0, #1
 8000b74:	ea40 0003 	orr.w	r0, r0, r3
 8000b78:	4770      	bx	lr
 8000b7a:	0049      	lsls	r1, r1, #1
 8000b7c:	eb40 0000 	adc.w	r0, r0, r0
 8000b80:	3a01      	subs	r2, #1
 8000b82:	bf28      	it	cs
 8000b84:	f5b0 0f00 	cmpcs.w	r0, #8388608	; 0x800000
 8000b88:	d2ed      	bcs.n	8000b66 <__addsf3+0x92>
 8000b8a:	fab0 fc80 	clz	ip, r0
 8000b8e:	f1ac 0c08 	sub.w	ip, ip, #8
 8000b92:	ebb2 020c 	subs.w	r2, r2, ip
 8000b96:	fa00 f00c 	lsl.w	r0, r0, ip
 8000b9a:	bfaa      	itet	ge
 8000b9c:	eb00 50c2 	addge.w	r0, r0, r2, lsl #23
 8000ba0:	4252      	neglt	r2, r2
 8000ba2:	4318      	orrge	r0, r3
 8000ba4:	bfbc      	itt	lt
 8000ba6:	40d0      	lsrlt	r0, r2
 8000ba8:	4318      	orrlt	r0, r3
 8000baa:	4770      	bx	lr
 8000bac:	f092 0f00 	teq	r2, #0
 8000bb0:	f481 0100 	eor.w	r1, r1, #8388608	; 0x800000
 8000bb4:	bf06      	itte	eq
 8000bb6:	f480 0000 	eoreq.w	r0, r0, #8388608	; 0x800000
 8000bba:	3201      	addeq	r2, #1
 8000bbc:	3b01      	subne	r3, #1
 8000bbe:	e7b5      	b.n	8000b2c <__addsf3+0x58>
 8000bc0:	ea4f 0341 	mov.w	r3, r1, lsl #1
 8000bc4:	ea7f 6c22 	mvns.w	ip, r2, asr #24
 8000bc8:	bf18      	it	ne
 8000bca:	ea7f 6c23 	mvnsne.w	ip, r3, asr #24
 8000bce:	d021      	beq.n	8000c14 <__addsf3+0x140>
 8000bd0:	ea92 0f03 	teq	r2, r3
 8000bd4:	d004      	beq.n	8000be0 <__addsf3+0x10c>
 8000bd6:	f092 0f00 	teq	r2, #0
 8000bda:	bf08      	it	eq
 8000bdc:	4608      	moveq	r0, r1
 8000bde:	4770      	bx	lr
 8000be0:	ea90 0f01 	teq	r0, r1
 8000be4:	bf1c      	itt	ne
 8000be6:	2000      	movne	r0, #0
 8000be8:	4770      	bxne	lr
 8000bea:	f012 4f7f 	tst.w	r2, #4278190080	; 0xff000000
 8000bee:	d104      	bne.n	8000bfa <__addsf3+0x126>
 8000bf0:	0040      	lsls	r0, r0, #1
 8000bf2:	bf28      	it	cs
 8000bf4:	f040 4000 	orrcs.w	r0, r0, #2147483648	; 0x80000000
 8000bf8:	4770      	bx	lr
 8000bfa:	f112 7200 	adds.w	r2, r2, #33554432	; 0x2000000
 8000bfe:	bf3c      	itt	cc
 8000c00:	f500 0000 	addcc.w	r0, r0, #8388608	; 0x800000
 8000c04:	4770      	bxcc	lr
 8000c06:	f000 4300 	and.w	r3, r0, #2147483648	; 0x80000000
 8000c0a:	f043 40fe 	orr.w	r0, r3, #2130706432	; 0x7f000000
 8000c0e:	f440 0000 	orr.w	r0, r0, #8388608	; 0x800000
 8000c12:	4770      	bx	lr
 8000c14:	ea7f 6222 	mvns.w	r2, r2, asr #24
 8000c18:	bf16      	itet	ne
 8000c1a:	4608      	movne	r0, r1
 8000c1c:	ea7f 6323 	mvnseq.w	r3, r3, asr #24
 8000c20:	4601      	movne	r1, r0
 8000c22:	0242      	lsls	r2, r0, #9
 8000c24:	bf06      	itte	eq
 8000c26:	ea5f 2341 	movseq.w	r3, r1, lsl #9
 8000c2a:	ea90 0f01 	teqeq	r0, r1
 8000c2e:	f440 0080 	orrne.w	r0, r0, #4194304	; 0x400000
 8000c32:	4770      	bx	lr

08000c34 <__aeabi_ui2f>:
 8000c34:	f04f 0300 	mov.w	r3, #0
 8000c38:	e004      	b.n	8000c44 <__aeabi_i2f+0x8>
 8000c3a:	bf00      	nop

08000c3c <__aeabi_i2f>:
 8000c3c:	f010 4300 	ands.w	r3, r0, #2147483648	; 0x80000000
 8000c40:	bf48      	it	mi
 8000c42:	4240      	negmi	r0, r0
 8000c44:	ea5f 0c00 	movs.w	ip, r0
 8000c48:	bf08      	it	eq
 8000c4a:	4770      	bxeq	lr
 8000c4c:	f043 4396 	orr.w	r3, r3, #1258291200	; 0x4b000000
 8000c50:	4601      	mov	r1, r0
 8000c52:	f04f 0000 	mov.w	r0, #0
 8000c56:	e01c      	b.n	8000c92 <__aeabi_l2f+0x2a>

08000c58 <__aeabi_ul2f>:
 8000c58:	ea50 0201 	orrs.w	r2, r0, r1
 8000c5c:	bf08      	it	eq
 8000c5e:	4770      	bxeq	lr
 8000c60:	f04f 0300 	mov.w	r3, #0
 8000c64:	e00a      	b.n	8000c7c <__aeabi_l2f+0x14>
 8000c66:	bf00      	nop

08000c68 <__aeabi_l2f>:
 8000c68:	ea50 0201 	orrs.w	r2, r0, r1
 8000c6c:	bf08      	it	eq
 8000c6e:	4770      	bxeq	lr
 8000c70:	f011 4300 	ands.w	r3, r1, #2147483648	; 0x80000000
 8000c74:	d502      	bpl.n	8000c7c <__aeabi_l2f+0x14>
 8000c76:	4240      	negs	r0, r0
 8000c78:	eb61 0141 	sbc.w	r1, r1, r1, lsl #1
 8000c7c:	ea5f 0c01 	movs.w	ip, r1
 8000c80:	bf02      	ittt	eq
 8000c82:	4684      	moveq	ip, r0
 8000c84:	4601      	moveq	r1, r0
 8000c86:	2000      	moveq	r0, #0
 8000c88:	f043 43b6 	orr.w	r3, r3, #1526726656	; 0x5b000000
 8000c8c:	bf08      	it	eq
 8000c8e:	f1a3 5380 	subeq.w	r3, r3, #268435456	; 0x10000000
 8000c92:	f5a3 0300 	sub.w	r3, r3, #8388608	; 0x800000
 8000c96:	fabc f28c 	clz	r2, ip
 8000c9a:	3a08      	subs	r2, #8
 8000c9c:	eba3 53c2 	sub.w	r3, r3, r2, lsl #23
 8000ca0:	db10      	blt.n	8000cc4 <__aeabi_l2f+0x5c>
 8000ca2:	fa01 fc02 	lsl.w	ip, r1, r2
 8000ca6:	4463      	add	r3, ip
 8000ca8:	fa00 fc02 	lsl.w	ip, r0, r2
 8000cac:	f1c2 0220 	rsb	r2, r2, #32
 8000cb0:	f1bc 4f00 	cmp.w	ip, #2147483648	; 0x80000000
 8000cb4:	fa20 f202 	lsr.w	r2, r0, r2
 8000cb8:	eb43 0002 	adc.w	r0, r3, r2
 8000cbc:	bf08      	it	eq
 8000cbe:	f020 0001 	biceq.w	r0, r0, #1
 8000cc2:	4770      	bx	lr
 8000cc4:	f102 0220 	add.w	r2, r2, #32
 8000cc8:	fa01 fc02 	lsl.w	ip, r1, r2
 8000ccc:	f1c2 0220 	rsb	r2, r2, #32
 8000cd0:	ea50 004c 	orrs.w	r0, r0, ip, lsl #1
 8000cd4:	fa21 f202 	lsr.w	r2, r1, r2
 8000cd8:	eb43 0002 	adc.w	r0, r3, r2
 8000cdc:	bf08      	it	eq
 8000cde:	ea20 70dc 	biceq.w	r0, r0, ip, lsr #31
 8000ce2:	4770      	bx	lr

08000ce4 <__aeabi_fmul>:
 8000ce4:	f04f 0cff 	mov.w	ip, #255	; 0xff
 8000ce8:	ea1c 52d0 	ands.w	r2, ip, r0, lsr #23
 8000cec:	bf1e      	ittt	ne
 8000cee:	ea1c 53d1 	andsne.w	r3, ip, r1, lsr #23
 8000cf2:	ea92 0f0c 	teqne	r2, ip
 8000cf6:	ea93 0f0c 	teqne	r3, ip
 8000cfa:	d06f      	beq.n	8000ddc <__aeabi_fmul+0xf8>
 8000cfc:	441a      	add	r2, r3
 8000cfe:	ea80 0c01 	eor.w	ip, r0, r1
 8000d02:	0240      	lsls	r0, r0, #9
 8000d04:	bf18      	it	ne
 8000d06:	ea5f 2141 	movsne.w	r1, r1, lsl #9
 8000d0a:	d01e      	beq.n	8000d4a <__aeabi_fmul+0x66>
 8000d0c:	f04f 6300 	mov.w	r3, #134217728	; 0x8000000
 8000d10:	ea43 1050 	orr.w	r0, r3, r0, lsr #5
 8000d14:	ea43 1151 	orr.w	r1, r3, r1, lsr #5
 8000d18:	fba0 3101 	umull	r3, r1, r0, r1
 8000d1c:	f00c 4000 	and.w	r0, ip, #2147483648	; 0x80000000
 8000d20:	f5b1 0f00 	cmp.w	r1, #8388608	; 0x800000
 8000d24:	bf3e      	ittt	cc
 8000d26:	0049      	lslcc	r1, r1, #1
 8000d28:	ea41 71d3 	orrcc.w	r1, r1, r3, lsr #31
 8000d2c:	005b      	lslcc	r3, r3, #1
 8000d2e:	ea40 0001 	orr.w	r0, r0, r1
 8000d32:	f162 027f 	sbc.w	r2, r2, #127	; 0x7f
 8000d36:	2afd      	cmp	r2, #253	; 0xfd
 8000d38:	d81d      	bhi.n	8000d76 <__aeabi_fmul+0x92>
 8000d3a:	f1b3 4f00 	cmp.w	r3, #2147483648	; 0x80000000
 8000d3e:	eb40 50c2 	adc.w	r0, r0, r2, lsl #23
 8000d42:	bf08      	it	eq
 8000d44:	f020 0001 	biceq.w	r0, r0, #1
 8000d48:	4770      	bx	lr
 8000d4a:	f090 0f00 	teq	r0, #0
 8000d4e:	f00c 4c00 	and.w	ip, ip, #2147483648	; 0x80000000
 8000d52:	bf08      	it	eq
 8000d54:	0249      	lsleq	r1, r1, #9
 8000d56:	ea4c 2050 	orr.w	r0, ip, r0, lsr #9
 8000d5a:	ea40 2051 	orr.w	r0, r0, r1, lsr #9
 8000d5e:	3a7f      	subs	r2, #127	; 0x7f
 8000d60:	bfc2      	ittt	gt
 8000d62:	f1d2 03ff 	rsbsgt	r3, r2, #255	; 0xff
 8000d66:	ea40 50c2 	orrgt.w	r0, r0, r2, lsl #23
 8000d6a:	4770      	bxgt	lr
 8000d6c:	f440 0000 	orr.w	r0, r0, #8388608	; 0x800000
 8000d70:	f04f 0300 	mov.w	r3, #0
 8000d74:	3a01      	subs	r2, #1
 8000d76:	dc5d      	bgt.n	8000e34 <__aeabi_fmul+0x150>
 8000d78:	f112 0f19 	cmn.w	r2, #25
 8000d7c:	bfdc      	itt	le
 8000d7e:	f000 4000 	andle.w	r0, r0, #2147483648	; 0x80000000
 8000d82:	4770      	bxle	lr
 8000d84:	f1c2 0200 	rsb	r2, r2, #0
 8000d88:	0041      	lsls	r1, r0, #1
 8000d8a:	fa21 f102 	lsr.w	r1, r1, r2
 8000d8e:	f1c2 0220 	rsb	r2, r2, #32
 8000d92:	fa00 fc02 	lsl.w	ip, r0, r2
 8000d96:	ea5f 0031 	movs.w	r0, r1, rrx
 8000d9a:	f140 0000 	adc.w	r0, r0, #0
 8000d9e:	ea53 034c 	orrs.w	r3, r3, ip, lsl #1
 8000da2:	bf08      	it	eq
 8000da4:	ea20 70dc 	biceq.w	r0, r0, ip, lsr #31
 8000da8:	4770      	bx	lr
 8000daa:	f092 0f00 	teq	r2, #0
 8000dae:	f000 4c00 	and.w	ip, r0, #2147483648	; 0x80000000
 8000db2:	bf02      	ittt	eq
 8000db4:	0040      	lsleq	r0, r0, #1
 8000db6:	f410 0f00 	tsteq.w	r0, #8388608	; 0x800000
 8000dba:	3a01      	subeq	r2, #1
 8000dbc:	d0f9      	beq.n	8000db2 <__aeabi_fmul+0xce>
 8000dbe:	ea40 000c 	orr.w	r0, r0, ip
 8000dc2:	f093 0f00 	teq	r3, #0
 8000dc6:	f001 4c00 	and.w	ip, r1, #2147483648	; 0x80000000
 8000dca:	bf02      	ittt	eq
 8000dcc:	0049      	lsleq	r1, r1, #1
 8000dce:	f411 0f00 	tsteq.w	r1, #8388608	; 0x800000
 8000dd2:	3b01      	subeq	r3, #1
 8000dd4:	d0f9      	beq.n	8000dca <__aeabi_fmul+0xe6>
 8000dd6:	ea41 010c 	orr.w	r1, r1, ip
 8000dda:	e78f      	b.n	8000cfc <__aeabi_fmul+0x18>
 8000ddc:	ea0c 53d1 	and.w	r3, ip, r1, lsr #23
 8000de0:	ea92 0f0c 	teq	r2, ip
 8000de4:	bf18      	it	ne
 8000de6:	ea93 0f0c 	teqne	r3, ip
 8000dea:	d00a      	beq.n	8000e02 <__aeabi_fmul+0x11e>
 8000dec:	f030 4c00 	bics.w	ip, r0, #2147483648	; 0x80000000
 8000df0:	bf18      	it	ne
 8000df2:	f031 4c00 	bicsne.w	ip, r1, #2147483648	; 0x80000000
 8000df6:	d1d8      	bne.n	8000daa <__aeabi_fmul+0xc6>
 8000df8:	ea80 0001 	eor.w	r0, r0, r1
 8000dfc:	f000 4000 	and.w	r0, r0, #2147483648	; 0x80000000
 8000e00:	4770      	bx	lr
 8000e02:	f090 0f00 	teq	r0, #0
 8000e06:	bf17      	itett	ne
 8000e08:	f090 4f00 	teqne	r0, #2147483648	; 0x80000000
 8000e0c:	4608      	moveq	r0, r1
 8000e0e:	f091 0f00 	teqne	r1, #0
 8000e12:	f091 4f00 	teqne	r1, #2147483648	; 0x80000000
 8000e16:	d014      	beq.n	8000e42 <__aeabi_fmul+0x15e>
 8000e18:	ea92 0f0c 	teq	r2, ip
 8000e1c:	d101      	bne.n	8000e22 <__aeabi_fmul+0x13e>
 8000e1e:	0242      	lsls	r2, r0, #9
 8000e20:	d10f      	bne.n	8000e42 <__aeabi_fmul+0x15e>
 8000e22:	ea93 0f0c 	teq	r3, ip
 8000e26:	d103      	bne.n	8000e30 <__aeabi_fmul+0x14c>
 8000e28:	024b      	lsls	r3, r1, #9
 8000e2a:	bf18      	it	ne
 8000e2c:	4608      	movne	r0, r1
 8000e2e:	d108      	bne.n	8000e42 <__aeabi_fmul+0x15e>
 8000e30:	ea80 0001 	eor.w	r0, r0, r1
 8000e34:	f000 4000 	and.w	r0, r0, #2147483648	; 0x80000000
 8000e38:	f040 40fe 	orr.w	r0, r0, #2130706432	; 0x7f000000
 8000e3c:	f440 0000 	orr.w	r0, r0, #8388608	; 0x800000
 8000e40:	4770      	bx	lr
 8000e42:	f040 40fe 	orr.w	r0, r0, #2130706432	; 0x7f000000
 8000e46:	f440 0040 	orr.w	r0, r0, #12582912	; 0xc00000
 8000e4a:	4770      	bx	lr

08000e4c <__aeabi_fdiv>:
 8000e4c:	f04f 0cff 	mov.w	ip, #255	; 0xff
 8000e50:	ea1c 52d0 	ands.w	r2, ip, r0, lsr #23
 8000e54:	bf1e      	ittt	ne
 8000e56:	ea1c 53d1 	andsne.w	r3, ip, r1, lsr #23
 8000e5a:	ea92 0f0c 	teqne	r2, ip
 8000e5e:	ea93 0f0c 	teqne	r3, ip
 8000e62:	d069      	beq.n	8000f38 <__aeabi_fdiv+0xec>
 8000e64:	eba2 0203 	sub.w	r2, r2, r3
 8000e68:	ea80 0c01 	eor.w	ip, r0, r1
 8000e6c:	0249      	lsls	r1, r1, #9
 8000e6e:	ea4f 2040 	mov.w	r0, r0, lsl #9
 8000e72:	d037      	beq.n	8000ee4 <__aeabi_fdiv+0x98>
 8000e74:	f04f 5380 	mov.w	r3, #268435456	; 0x10000000
 8000e78:	ea43 1111 	orr.w	r1, r3, r1, lsr #4
 8000e7c:	ea43 1310 	orr.w	r3, r3, r0, lsr #4
 8000e80:	f00c 4000 	and.w	r0, ip, #2147483648	; 0x80000000
 8000e84:	428b      	cmp	r3, r1
 8000e86:	bf38      	it	cc
 8000e88:	005b      	lslcc	r3, r3, #1
 8000e8a:	f142 027d 	adc.w	r2, r2, #125	; 0x7d
 8000e8e:	f44f 0c00 	mov.w	ip, #8388608	; 0x800000
 8000e92:	428b      	cmp	r3, r1
 8000e94:	bf24      	itt	cs
 8000e96:	1a5b      	subcs	r3, r3, r1
 8000e98:	ea40 000c 	orrcs.w	r0, r0, ip
 8000e9c:	ebb3 0f51 	cmp.w	r3, r1, lsr #1
 8000ea0:	bf24      	itt	cs
 8000ea2:	eba3 0351 	subcs.w	r3, r3, r1, lsr #1
 8000ea6:	ea40 005c 	orrcs.w	r0, r0, ip, lsr #1
 8000eaa:	ebb3 0f91 	cmp.w	r3, r1, lsr #2
 8000eae:	bf24      	itt	cs
 8000eb0:	eba3 0391 	subcs.w	r3, r3, r1, lsr #2
 8000eb4:	ea40 009c 	orrcs.w	r0, r0, ip, lsr #2
 8000eb8:	ebb3 0fd1 	cmp.w	r3, r1, lsr #3
 8000ebc:	bf24      	itt	cs
 8000ebe:	eba3 03d1 	subcs.w	r3, r3, r1, lsr #3
 8000ec2:	ea40 00dc 	orrcs.w	r0, r0, ip, lsr #3
 8000ec6:	011b      	lsls	r3, r3, #4
 8000ec8:	bf18      	it	ne
 8000eca:	ea5f 1c1c 	movsne.w	ip, ip, lsr #4
 8000ece:	d1e0      	bne.n	8000e92 <__aeabi_fdiv+0x46>
 8000ed0:	2afd      	cmp	r2, #253	; 0xfd
 8000ed2:	f63f af50 	bhi.w	8000d76 <__aeabi_fmul+0x92>
 8000ed6:	428b      	cmp	r3, r1
 8000ed8:	eb40 50c2 	adc.w	r0, r0, r2, lsl #23
 8000edc:	bf08      	it	eq
 8000ede:	f020 0001 	biceq.w	r0, r0, #1
 8000ee2:	4770      	bx	lr
 8000ee4:	f00c 4c00 	and.w	ip, ip, #2147483648	; 0x80000000
 8000ee8:	ea4c 2050 	orr.w	r0, ip, r0, lsr #9
 8000eec:	327f      	adds	r2, #127	; 0x7f
 8000eee:	bfc2      	ittt	gt
 8000ef0:	f1d2 03ff 	rsbsgt	r3, r2, #255	; 0xff
 8000ef4:	ea40 50c2 	orrgt.w	r0, r0, r2, lsl #23
 8000ef8:	4770      	bxgt	lr
 8000efa:	f440 0000 	orr.w	r0, r0, #8388608	; 0x800000
 8000efe:	f04f 0300 	mov.w	r3, #0
 8000f02:	3a01      	subs	r2, #1
 8000f04:	e737      	b.n	8000d76 <__aeabi_fmul+0x92>
 8000f06:	f092 0f00 	teq	r2, #0
 8000f0a:	f000 4c00 	and.w	ip, r0, #2147483648	; 0x80000000
 8000f0e:	bf02      	ittt	eq
 8000f10:	0040      	lsleq	r0, r0, #1
 8000f12:	f410 0f00 	tsteq.w	r0, #8388608	; 0x800000
 8000f16:	3a01      	subeq	r2, #1
 8000f18:	d0f9      	beq.n	8000f0e <__aeabi_fdiv+0xc2>
 8000f1a:	ea40 000c 	orr.w	r0, r0, ip
 8000f1e:	f093 0f00 	teq	r3, #0
 8000f22:	f001 4c00 	and.w	ip, r1, #2147483648	; 0x80000000
 8000f26:	bf02      	ittt	eq
 8000f28:	0049      	lsleq	r1, r1, #1
 8000f2a:	f411 0f00 	tsteq.w	r1, #8388608	; 0x800000
 8000f2e:	3b01      	subeq	r3, #1
 8000f30:	d0f9      	beq.n	8000f26 <__aeabi_fdiv+0xda>
 8000f32:	ea41 010c 	orr.w	r1, r1, ip
 8000f36:	e795      	b.n	8000e64 <__aeabi_fdiv+0x18>
 8000f38:	ea0c 53d1 	and.w	r3, ip, r1, lsr #23
 8000f3c:	ea92 0f0c 	teq	r2, ip
 8000f40:	d108      	bne.n	8000f54 <__aeabi_fdiv+0x108>
 8000f42:	0242      	lsls	r2, r0, #9
 8000f44:	f47f af7d 	bne.w	8000e42 <__aeabi_fmul+0x15e>
 8000f48:	ea93 0f0c 	teq	r3, ip
 8000f4c:	f47f af70 	bne.w	8000e30 <__aeabi_fmul+0x14c>
 8000f50:	4608      	mov	r0, r1
 8000f52:	e776      	b.n	8000e42 <__aeabi_fmul+0x15e>
 8000f54:	ea93 0f0c 	teq	r3, ip
 8000f58:	d104      	bne.n	8000f64 <__aeabi_fdiv+0x118>
 8000f5a:	024b      	lsls	r3, r1, #9
 8000f5c:	f43f af4c 	beq.w	8000df8 <__aeabi_fmul+0x114>
 8000f60:	4608      	mov	r0, r1
 8000f62:	e76e      	b.n	8000e42 <__aeabi_fmul+0x15e>
 8000f64:	f030 4c00 	bics.w	ip, r0, #2147483648	; 0x80000000
 8000f68:	bf18      	it	ne
 8000f6a:	f031 4c00 	bicsne.w	ip, r1, #2147483648	; 0x80000000
 8000f6e:	d1ca      	bne.n	8000f06 <__aeabi_fdiv+0xba>
 8000f70:	f030 4200 	bics.w	r2, r0, #2147483648	; 0x80000000
 8000f74:	f47f af5c 	bne.w	8000e30 <__aeabi_fmul+0x14c>
 8000f78:	f031 4300 	bics.w	r3, r1, #2147483648	; 0x80000000
 8000f7c:	f47f af3c 	bne.w	8000df8 <__aeabi_fmul+0x114>
 8000f80:	e75f      	b.n	8000e42 <__aeabi_fmul+0x15e>
 8000f82:	bf00      	nop

08000f84 <__gesf2>:
 8000f84:	f04f 3cff 	mov.w	ip, #4294967295
 8000f88:	e006      	b.n	8000f98 <__cmpsf2+0x4>
 8000f8a:	bf00      	nop

08000f8c <__lesf2>:
 8000f8c:	f04f 0c01 	mov.w	ip, #1
 8000f90:	e002      	b.n	8000f98 <__cmpsf2+0x4>
 8000f92:	bf00      	nop

08000f94 <__cmpsf2>:
 8000f94:	f04f 0c01 	mov.w	ip, #1
 8000f98:	f84d cd04 	str.w	ip, [sp, #-4]!
 8000f9c:	ea4f 0240 	mov.w	r2, r0, lsl #1
 8000fa0:	ea4f 0341 	mov.w	r3, r1, lsl #1
 8000fa4:	ea7f 6c22 	mvns.w	ip, r2, asr #24
 8000fa8:	bf18      	it	ne
 8000faa:	ea7f 6c23 	mvnsne.w	ip, r3, asr #24
 8000fae:	d011      	beq.n	8000fd4 <__cmpsf2+0x40>
 8000fb0:	b001      	add	sp, #4
 8000fb2:	ea52 0c53 	orrs.w	ip, r2, r3, lsr #1
 8000fb6:	bf18      	it	ne
 8000fb8:	ea90 0f01 	teqne	r0, r1
 8000fbc:	bf58      	it	pl
 8000fbe:	ebb2 0003 	subspl.w	r0, r2, r3
 8000fc2:	bf88      	it	hi
 8000fc4:	17c8      	asrhi	r0, r1, #31
 8000fc6:	bf38      	it	cc
 8000fc8:	ea6f 70e1 	mvncc.w	r0, r1, asr #31
 8000fcc:	bf18      	it	ne
 8000fce:	f040 0001 	orrne.w	r0, r0, #1
 8000fd2:	4770      	bx	lr
 8000fd4:	ea7f 6c22 	mvns.w	ip, r2, asr #24
 8000fd8:	d102      	bne.n	8000fe0 <__cmpsf2+0x4c>
 8000fda:	ea5f 2c40 	movs.w	ip, r0, lsl #9
 8000fde:	d105      	bne.n	8000fec <__cmpsf2+0x58>
 8000fe0:	ea7f 6c23 	mvns.w	ip, r3, asr #24
 8000fe4:	d1e4      	bne.n	8000fb0 <__cmpsf2+0x1c>
 8000fe6:	ea5f 2c41 	movs.w	ip, r1, lsl #9
 8000fea:	d0e1      	beq.n	8000fb0 <__cmpsf2+0x1c>
 8000fec:	f85d 0b04 	ldr.w	r0, [sp], #4
 8000ff0:	4770      	bx	lr
 8000ff2:	bf00      	nop

08000ff4 <__aeabi_cfrcmple>:
 8000ff4:	4684      	mov	ip, r0
 8000ff6:	4608      	mov	r0, r1
 8000ff8:	4661      	mov	r1, ip
 8000ffa:	e7ff      	b.n	8000ffc <__aeabi_cfcmpeq>

08000ffc <__aeabi_cfcmpeq>:
 8000ffc:	b50f      	push	{r0, r1, r2, r3, lr}
 8000ffe:	f7ff ffc9 	bl	8000f94 <__cmpsf2>
 8001002:	2800      	cmp	r0, #0
 8001004:	bf48      	it	mi
 8001006:	f110 0f00 	cmnmi.w	r0, #0
 800100a:	bd0f      	pop	{r0, r1, r2, r3, pc}

0800100c <__aeabi_fcmpeq>:
 800100c:	f84d ed08 	str.w	lr, [sp, #-8]!
 8001010:	f7ff fff4 	bl	8000ffc <__aeabi_cfcmpeq>
 8001014:	bf0c      	ite	eq
 8001016:	2001      	moveq	r0, #1
 8001018:	2000      	movne	r0, #0
 800101a:	f85d fb08 	ldr.w	pc, [sp], #8
 800101e:	bf00      	nop

08001020 <__aeabi_fcmplt>:
 8001020:	f84d ed08 	str.w	lr, [sp, #-8]!
 8001024:	f7ff ffea 	bl	8000ffc <__aeabi_cfcmpeq>
 8001028:	bf34      	ite	cc
 800102a:	2001      	movcc	r0, #1
 800102c:	2000      	movcs	r0, #0
 800102e:	f85d fb08 	ldr.w	pc, [sp], #8
 8001032:	bf00      	nop

08001034 <__aeabi_fcmple>:
 8001034:	f84d ed08 	str.w	lr, [sp, #-8]!
 8001038:	f7ff ffe0 	bl	8000ffc <__aeabi_cfcmpeq>
 800103c:	bf94      	ite	ls
 800103e:	2001      	movls	r0, #1
 8001040:	2000      	movhi	r0, #0
 8001042:	f85d fb08 	ldr.w	pc, [sp], #8
 8001046:	bf00      	nop

08001048 <__aeabi_fcmpge>:
 8001048:	f84d ed08 	str.w	lr, [sp, #-8]!
 800104c:	f7ff ffd2 	bl	8000ff4 <__aeabi_cfrcmple>
 8001050:	bf94      	ite	ls
 8001052:	2001      	movls	r0, #1
 8001054:	2000      	movhi	r0, #0
 8001056:	f85d fb08 	ldr.w	pc, [sp], #8
 800105a:	bf00      	nop

0800105c <__aeabi_fcmpgt>:
 800105c:	f84d ed08 	str.w	lr, [sp, #-8]!
 8001060:	f7ff ffc8 	bl	8000ff4 <__aeabi_cfrcmple>
 8001064:	bf34      	ite	cc
 8001066:	2001      	movcc	r0, #1
 8001068:	2000      	movcs	r0, #0
 800106a:	f85d fb08 	ldr.w	pc, [sp], #8
 800106e:	bf00      	nop

08001070 <__aeabi_f2iz>:
 8001070:	ea4f 0240 	mov.w	r2, r0, lsl #1
 8001074:	f1b2 4ffe 	cmp.w	r2, #2130706432	; 0x7f000000
 8001078:	d30f      	bcc.n	800109a <__aeabi_f2iz+0x2a>
 800107a:	f04f 039e 	mov.w	r3, #158	; 0x9e
 800107e:	ebb3 6212 	subs.w	r2, r3, r2, lsr #24
 8001082:	d90d      	bls.n	80010a0 <__aeabi_f2iz+0x30>
 8001084:	ea4f 2300 	mov.w	r3, r0, lsl #8
 8001088:	f043 4300 	orr.w	r3, r3, #2147483648	; 0x80000000
 800108c:	f010 4f00 	tst.w	r0, #2147483648	; 0x80000000
 8001090:	fa23 f002 	lsr.w	r0, r3, r2
 8001094:	bf18      	it	ne
 8001096:	4240      	negne	r0, r0
 8001098:	4770      	bx	lr
 800109a:	f04f 0000 	mov.w	r0, #0
 800109e:	4770      	bx	lr
 80010a0:	f112 0f61 	cmn.w	r2, #97	; 0x61
 80010a4:	d101      	bne.n	80010aa <__aeabi_f2iz+0x3a>
 80010a6:	0242      	lsls	r2, r0, #9
 80010a8:	d105      	bne.n	80010b6 <__aeabi_f2iz+0x46>
 80010aa:	f010 4000 	ands.w	r0, r0, #2147483648	; 0x80000000
 80010ae:	bf08      	it	eq
 80010b0:	f06f 4000 	mvneq.w	r0, #2147483648	; 0x80000000
 80010b4:	4770      	bx	lr
 80010b6:	f04f 0000 	mov.w	r0, #0
 80010ba:	4770      	bx	lr

080010bc <__aeabi_f2uiz>:
 80010bc:	0042      	lsls	r2, r0, #1
 80010be:	d20e      	bcs.n	80010de <__aeabi_f2uiz+0x22>
 80010c0:	f1b2 4ffe 	cmp.w	r2, #2130706432	; 0x7f000000
 80010c4:	d30b      	bcc.n	80010de <__aeabi_f2uiz+0x22>
 80010c6:	f04f 039e 	mov.w	r3, #158	; 0x9e
 80010ca:	ebb3 6212 	subs.w	r2, r3, r2, lsr #24
 80010ce:	d409      	bmi.n	80010e4 <__aeabi_f2uiz+0x28>
 80010d0:	ea4f 2300 	mov.w	r3, r0, lsl #8
 80010d4:	f043 4300 	orr.w	r3, r3, #2147483648	; 0x80000000
 80010d8:	fa23 f002 	lsr.w	r0, r3, r2
 80010dc:	4770      	bx	lr
 80010de:	f04f 0000 	mov.w	r0, #0
 80010e2:	4770      	bx	lr
 80010e4:	f112 0f61 	cmn.w	r2, #97	; 0x61
 80010e8:	d101      	bne.n	80010ee <__aeabi_f2uiz+0x32>
 80010ea:	0242      	lsls	r2, r0, #9
 80010ec:	d102      	bne.n	80010f4 <__aeabi_f2uiz+0x38>
 80010ee:	f04f 30ff 	mov.w	r0, #4294967295
 80010f2:	4770      	bx	lr
 80010f4:	f04f 0000 	mov.w	r0, #0
 80010f8:	4770      	bx	lr
 80010fa:	bf00      	nop

080010fc <GetPage>:
   static uint32_t GetPage(uint32_t Address)
{
 80010fc:	b480      	push	{r7}
 80010fe:	b085      	sub	sp, #20
 8001100:	af00      	add	r7, sp, #0
 8001102:	6078      	str	r0, [r7, #4]
  for (int indx=0; indx<128; indx++)
 8001104:	2300      	movs	r3, #0
 8001106:	60fb      	str	r3, [r7, #12]
 8001108:	e018      	b.n	800113c <GetPage+0x40>
  {
      if((Address < (0x08000000 + (1024 *(indx+1))) ) && (Address >= (0x08000000 + 1024*indx)))
 800110a:	68fb      	ldr	r3, [r7, #12]
 800110c:	f503 3300 	add.w	r3, r3, #131072	; 0x20000
 8001110:	3301      	adds	r3, #1
 8001112:	029b      	lsls	r3, r3, #10
 8001114:	461a      	mov	r2, r3
 8001116:	687b      	ldr	r3, [r7, #4]
 8001118:	4293      	cmp	r3, r2
 800111a:	d20c      	bcs.n	8001136 <GetPage+0x3a>
 800111c:	68fb      	ldr	r3, [r7, #12]
 800111e:	f503 3300 	add.w	r3, r3, #131072	; 0x20000
 8001122:	029b      	lsls	r3, r3, #10
 8001124:	461a      	mov	r2, r3
 8001126:	687b      	ldr	r3, [r7, #4]
 8001128:	4293      	cmp	r3, r2
 800112a:	d304      	bcc.n	8001136 <GetPage+0x3a>
      {
          return (0x08000000 + 1024*indx);
 800112c:	68fb      	ldr	r3, [r7, #12]
 800112e:	f503 3300 	add.w	r3, r3, #131072	; 0x20000
 8001132:	029b      	lsls	r3, r3, #10
 8001134:	e007      	b.n	8001146 <GetPage+0x4a>
  for (int indx=0; indx<128; indx++)
 8001136:	68fb      	ldr	r3, [r7, #12]
 8001138:	3301      	adds	r3, #1
 800113a:	60fb      	str	r3, [r7, #12]
 800113c:	68fb      	ldr	r3, [r7, #12]
 800113e:	2b7f      	cmp	r3, #127	; 0x7f
 8001140:	dde3      	ble.n	800110a <GetPage+0xe>
      }
  }

  return -1;
 8001142:	f04f 33ff 	mov.w	r3, #4294967295
}
 8001146:	4618      	mov	r0, r3
 8001148:	3714      	adds	r7, #20
 800114a:	46bd      	mov	sp, r7
 800114c:	bc80      	pop	{r7}
 800114e:	4770      	bx	lr

08001150 <Flash_Write_Data>:
uint32_t Flash_Write_Data (uint32_t StartPageAddress, uint32_t *Data, uint16_t numberofwords)
{
 8001150:	b580      	push	{r7, lr}
 8001152:	b08a      	sub	sp, #40	; 0x28
 8001154:	af00      	add	r7, sp, #0
 8001156:	60f8      	str	r0, [r7, #12]
 8001158:	60b9      	str	r1, [r7, #8]
 800115a:	4613      	mov	r3, r2
 800115c:	80fb      	strh	r3, [r7, #6]

	static FLASH_EraseInitTypeDef EraseInitStruct;
	uint32_t PAGEError;
	int sofar=0;
 800115e:	2300      	movs	r3, #0
 8001160:	627b      	str	r3, [r7, #36]	; 0x24

	  /* Unlock the Flash to enable the flash control register access *************/
	   HAL_FLASH_Unlock();
 8001162:	f001 fc5b 	bl	8002a1c <HAL_FLASH_Unlock>

	   /* Erase the user Flash area*/

	  uint32_t StartPage = GetPage(StartPageAddress);
 8001166:	68f8      	ldr	r0, [r7, #12]
 8001168:	f7ff ffc8 	bl	80010fc <GetPage>
 800116c:	6238      	str	r0, [r7, #32]
	  uint32_t EndPageAdress = StartPageAddress + numberofwords*4;
 800116e:	88fb      	ldrh	r3, [r7, #6]
 8001170:	009b      	lsls	r3, r3, #2
 8001172:	461a      	mov	r2, r3
 8001174:	68fb      	ldr	r3, [r7, #12]
 8001176:	4413      	add	r3, r2
 8001178:	61fb      	str	r3, [r7, #28]
	  uint32_t EndPage = GetPage(EndPageAdress);
 800117a:	69f8      	ldr	r0, [r7, #28]
 800117c:	f7ff ffbe 	bl	80010fc <GetPage>
 8001180:	61b8      	str	r0, [r7, #24]

	   /* Fill EraseInit structure*/
	   EraseInitStruct.TypeErase   = FLASH_TYPEERASE_PAGES;
 8001182:	4b1f      	ldr	r3, [pc, #124]	; (8001200 <Flash_Write_Data+0xb0>)
 8001184:	2200      	movs	r2, #0
 8001186:	601a      	str	r2, [r3, #0]
	   EraseInitStruct.PageAddress = StartPage;
 8001188:	4a1d      	ldr	r2, [pc, #116]	; (8001200 <Flash_Write_Data+0xb0>)
 800118a:	6a3b      	ldr	r3, [r7, #32]
 800118c:	6093      	str	r3, [r2, #8]
	   EraseInitStruct.NbPages     = ((EndPage - StartPage)/FLASH_PAGE_SIZE) +1;
 800118e:	69ba      	ldr	r2, [r7, #24]
 8001190:	6a3b      	ldr	r3, [r7, #32]
 8001192:	1ad3      	subs	r3, r2, r3
 8001194:	0a9b      	lsrs	r3, r3, #10
 8001196:	3301      	adds	r3, #1
 8001198:	4a19      	ldr	r2, [pc, #100]	; (8001200 <Flash_Write_Data+0xb0>)
 800119a:	60d3      	str	r3, [r2, #12]

	   if (HAL_FLASHEx_Erase(&EraseInitStruct, &PAGEError) != HAL_OK)
 800119c:	f107 0314 	add.w	r3, r7, #20
 80011a0:	4619      	mov	r1, r3
 80011a2:	4817      	ldr	r0, [pc, #92]	; (8001200 <Flash_Write_Data+0xb0>)
 80011a4:	f001 fd2c 	bl	8002c00 <HAL_FLASHEx_Erase>
 80011a8:	4603      	mov	r3, r0
 80011aa:	2b00      	cmp	r3, #0
 80011ac:	d01d      	beq.n	80011ea <Flash_Write_Data+0x9a>
	   {
	     /*Error occurred while page erase.*/
		  return HAL_FLASH_GetError ();
 80011ae:	f001 fc6b 	bl	8002a88 <HAL_FLASH_GetError>
 80011b2:	4603      	mov	r3, r0
 80011b4:	e020      	b.n	80011f8 <Flash_Write_Data+0xa8>

	   /* Program the user Flash area word by word*/

	   while (sofar<numberofwords)
	   {
	     if (HAL_FLASH_Program(FLASH_TYPEPROGRAM_WORD, StartPageAddress, Data[sofar]) == HAL_OK)
 80011b6:	6a7b      	ldr	r3, [r7, #36]	; 0x24
 80011b8:	009b      	lsls	r3, r3, #2
 80011ba:	68ba      	ldr	r2, [r7, #8]
 80011bc:	4413      	add	r3, r2
 80011be:	681b      	ldr	r3, [r3, #0]
 80011c0:	461a      	mov	r2, r3
 80011c2:	f04f 0300 	mov.w	r3, #0
 80011c6:	68f9      	ldr	r1, [r7, #12]
 80011c8:	2002      	movs	r0, #2
 80011ca:	f001 fbb7 	bl	800293c <HAL_FLASH_Program>
 80011ce:	4603      	mov	r3, r0
 80011d0:	2b00      	cmp	r3, #0
 80011d2:	d106      	bne.n	80011e2 <Flash_Write_Data+0x92>
	     {
	    	 StartPageAddress += 4;  // use StartPageAddress += 2 for half word and 8 for double word
 80011d4:	68fb      	ldr	r3, [r7, #12]
 80011d6:	3304      	adds	r3, #4
 80011d8:	60fb      	str	r3, [r7, #12]
	    	 sofar++;
 80011da:	6a7b      	ldr	r3, [r7, #36]	; 0x24
 80011dc:	3301      	adds	r3, #1
 80011de:	627b      	str	r3, [r7, #36]	; 0x24
 80011e0:	e003      	b.n	80011ea <Flash_Write_Data+0x9a>
	     }
	     else
	     {
	       /* Error occurred while writing data in Flash memory*/
	    	 return HAL_FLASH_GetError ();
 80011e2:	f001 fc51 	bl	8002a88 <HAL_FLASH_GetError>
 80011e6:	4603      	mov	r3, r0
 80011e8:	e006      	b.n	80011f8 <Flash_Write_Data+0xa8>
	   while (sofar<numberofwords)
 80011ea:	88fb      	ldrh	r3, [r7, #6]
 80011ec:	6a7a      	ldr	r2, [r7, #36]	; 0x24
 80011ee:	429a      	cmp	r2, r3
 80011f0:	dbe1      	blt.n	80011b6 <Flash_Write_Data+0x66>
	     }
	   }

	   /* Lock the Flash to disable the flash control register access (recommended
	      to protect the FLASH memory against possible unwanted operation) *********/
	   HAL_FLASH_Lock();
 80011f2:	f001 fc39 	bl	8002a68 <HAL_FLASH_Lock>

	   return 0;
 80011f6:	2300      	movs	r3, #0
}
 80011f8:	4618      	mov	r0, r3
 80011fa:	3728      	adds	r7, #40	; 0x28
 80011fc:	46bd      	mov	sp, r7
 80011fe:	bd80      	pop	{r7, pc}
 8001200:	200000b4 	.word	0x200000b4

08001204 <Flash_Read_Data>:
void Flash_Read_Data (uint32_t StartPageAddress, uint32_t *RxBuf, uint16_t numberofwords)
{
 8001204:	b480      	push	{r7}
 8001206:	b085      	sub	sp, #20
 8001208:	af00      	add	r7, sp, #0
 800120a:	60f8      	str	r0, [r7, #12]
 800120c:	60b9      	str	r1, [r7, #8]
 800120e:	4613      	mov	r3, r2
 8001210:	80fb      	strh	r3, [r7, #6]
	while (1)
	{

		*RxBuf = *(__IO uint32_t *)StartPageAddress;
 8001212:	68fb      	ldr	r3, [r7, #12]
 8001214:	681a      	ldr	r2, [r3, #0]
 8001216:	68bb      	ldr	r3, [r7, #8]
 8001218:	601a      	str	r2, [r3, #0]
		StartPageAddress += 4;
 800121a:	68fb      	ldr	r3, [r7, #12]
 800121c:	3304      	adds	r3, #4
 800121e:	60fb      	str	r3, [r7, #12]
		RxBuf++;
 8001220:	68bb      	ldr	r3, [r7, #8]
 8001222:	3304      	adds	r3, #4
 8001224:	60bb      	str	r3, [r7, #8]
		if (!(numberofwords--)) break;
 8001226:	88fb      	ldrh	r3, [r7, #6]
 8001228:	1e5a      	subs	r2, r3, #1
 800122a:	80fa      	strh	r2, [r7, #6]
 800122c:	2b00      	cmp	r3, #0
 800122e:	d000      	beq.n	8001232 <Flash_Read_Data+0x2e>
		*RxBuf = *(__IO uint32_t *)StartPageAddress;
 8001230:	e7ef      	b.n	8001212 <Flash_Read_Data+0xe>
		if (!(numberofwords--)) break;
 8001232:	bf00      	nop
	}
}
 8001234:	bf00      	nop
 8001236:	3714      	adds	r7, #20
 8001238:	46bd      	mov	sp, r7
 800123a:	bc80      	pop	{r7}
 800123c:	4770      	bx	lr
	...

08001240 <send_to_lcd>:

#ifndef INC_LCD16X2_H_
#define INC_LCD16X2_H_

void send_to_lcd (char data, int rs)
{
 8001240:	b580      	push	{r7, lr}
 8001242:	b082      	sub	sp, #8
 8001244:	af00      	add	r7, sp, #0
 8001246:	4603      	mov	r3, r0
 8001248:	6039      	str	r1, [r7, #0]
 800124a:	71fb      	strb	r3, [r7, #7]
	HAL_GPIO_WritePin(GPIOB, RS_Pin, rs);  // rs = 1 for data, rs=0 for command
 800124c:	683b      	ldr	r3, [r7, #0]
 800124e:	b2db      	uxtb	r3, r3
 8001250:	461a      	mov	r2, r3
 8001252:	2101      	movs	r1, #1
 8001254:	4820      	ldr	r0, [pc, #128]	; (80012d8 <send_to_lcd+0x98>)
 8001256:	f001 ff16 	bl	8003086 <HAL_GPIO_WritePin>

	/* write the data to the respective pin */
	HAL_GPIO_WritePin(GPIOA, D4_Pin, ((data>>3)&0x01));
 800125a:	79fb      	ldrb	r3, [r7, #7]
 800125c:	08db      	lsrs	r3, r3, #3
 800125e:	b2db      	uxtb	r3, r3
 8001260:	f003 0301 	and.w	r3, r3, #1
 8001264:	b2db      	uxtb	r3, r3
 8001266:	461a      	mov	r2, r3
 8001268:	2108      	movs	r1, #8
 800126a:	481c      	ldr	r0, [pc, #112]	; (80012dc <send_to_lcd+0x9c>)
 800126c:	f001 ff0b 	bl	8003086 <HAL_GPIO_WritePin>
	HAL_GPIO_WritePin(GPIOA, D3_Pin, ((data>>2)&0x01));
 8001270:	79fb      	ldrb	r3, [r7, #7]
 8001272:	089b      	lsrs	r3, r3, #2
 8001274:	b2db      	uxtb	r3, r3
 8001276:	f003 0301 	and.w	r3, r3, #1
 800127a:	b2db      	uxtb	r3, r3
 800127c:	461a      	mov	r2, r3
 800127e:	2104      	movs	r1, #4
 8001280:	4816      	ldr	r0, [pc, #88]	; (80012dc <send_to_lcd+0x9c>)
 8001282:	f001 ff00 	bl	8003086 <HAL_GPIO_WritePin>
	HAL_GPIO_WritePin(GPIOA, D2_Pin, ((data>>1)&0x01));
 8001286:	79fb      	ldrb	r3, [r7, #7]
 8001288:	085b      	lsrs	r3, r3, #1
 800128a:	b2db      	uxtb	r3, r3
 800128c:	f003 0301 	and.w	r3, r3, #1
 8001290:	b2db      	uxtb	r3, r3
 8001292:	461a      	mov	r2, r3
 8001294:	2102      	movs	r1, #2
 8001296:	4811      	ldr	r0, [pc, #68]	; (80012dc <send_to_lcd+0x9c>)
 8001298:	f001 fef5 	bl	8003086 <HAL_GPIO_WritePin>
	HAL_GPIO_WritePin(GPIOA, D1_Pin, ((data>>0)&0x01));
 800129c:	79fb      	ldrb	r3, [r7, #7]
 800129e:	f003 0301 	and.w	r3, r3, #1
 80012a2:	b2db      	uxtb	r3, r3
 80012a4:	461a      	mov	r2, r3
 80012a6:	2101      	movs	r1, #1
 80012a8:	480c      	ldr	r0, [pc, #48]	; (80012dc <send_to_lcd+0x9c>)
 80012aa:	f001 feec 	bl	8003086 <HAL_GPIO_WritePin>

	/* Toggle EN PIN to send the data
	 * if the HCLK > 100 MHz, use the  20 us delay
	 * if the LCD still doesn't work, increase the delay to 50, 80 or 100..
	 */
	HAL_GPIO_WritePin(GPIOB, EN_Pin, 1);
 80012ae:	2201      	movs	r2, #1
 80012b0:	2102      	movs	r1, #2
 80012b2:	4809      	ldr	r0, [pc, #36]	; (80012d8 <send_to_lcd+0x98>)
 80012b4:	f001 fee7 	bl	8003086 <HAL_GPIO_WritePin>
	HAL_Delay(1);
 80012b8:	2001      	movs	r0, #1
 80012ba:	f000 fe0b 	bl	8001ed4 <HAL_Delay>
	HAL_GPIO_WritePin(GPIOB, EN_Pin, 0);
 80012be:	2200      	movs	r2, #0
 80012c0:	2102      	movs	r1, #2
 80012c2:	4805      	ldr	r0, [pc, #20]	; (80012d8 <send_to_lcd+0x98>)
 80012c4:	f001 fedf 	bl	8003086 <HAL_GPIO_WritePin>
	HAL_Delay(1);
 80012c8:	2001      	movs	r0, #1
 80012ca:	f000 fe03 	bl	8001ed4 <HAL_Delay>
}
 80012ce:	bf00      	nop
 80012d0:	3708      	adds	r7, #8
 80012d2:	46bd      	mov	sp, r7
 80012d4:	bd80      	pop	{r7, pc}
 80012d6:	bf00      	nop
 80012d8:	40010c00 	.word	0x40010c00
 80012dc:	40010800 	.word	0x40010800

080012e0 <lcd_send_cmd>:

void lcd_send_cmd (char cmd)
{
 80012e0:	b580      	push	{r7, lr}
 80012e2:	b084      	sub	sp, #16
 80012e4:	af00      	add	r7, sp, #0
 80012e6:	4603      	mov	r3, r0
 80012e8:	71fb      	strb	r3, [r7, #7]
    char datatosend;

    /* send upper nibble first */
    datatosend = ((cmd>>4)&0x0f);
 80012ea:	79fb      	ldrb	r3, [r7, #7]
 80012ec:	091b      	lsrs	r3, r3, #4
 80012ee:	73fb      	strb	r3, [r7, #15]
    send_to_lcd(datatosend,0);  // RS must be 0 while sending command
 80012f0:	7bfb      	ldrb	r3, [r7, #15]
 80012f2:	2100      	movs	r1, #0
 80012f4:	4618      	mov	r0, r3
 80012f6:	f7ff ffa3 	bl	8001240 <send_to_lcd>

    /* send Lower Nibble */
    datatosend = ((cmd)&0x0f);
 80012fa:	79fb      	ldrb	r3, [r7, #7]
 80012fc:	f003 030f 	and.w	r3, r3, #15
 8001300:	73fb      	strb	r3, [r7, #15]
	send_to_lcd(datatosend, 0);
 8001302:	7bfb      	ldrb	r3, [r7, #15]
 8001304:	2100      	movs	r1, #0
 8001306:	4618      	mov	r0, r3
 8001308:	f7ff ff9a 	bl	8001240 <send_to_lcd>
}
 800130c:	bf00      	nop
 800130e:	3710      	adds	r7, #16
 8001310:	46bd      	mov	sp, r7
 8001312:	bd80      	pop	{r7, pc}

08001314 <lcd_send_data>:

void lcd_send_data (char data)
{
 8001314:	b580      	push	{r7, lr}
 8001316:	b084      	sub	sp, #16
 8001318:	af00      	add	r7, sp, #0
 800131a:	4603      	mov	r3, r0
 800131c:	71fb      	strb	r3, [r7, #7]
	char datatosend;

	/* send higher nibble */
	datatosend = ((data>>4)&0x0f);
 800131e:	79fb      	ldrb	r3, [r7, #7]
 8001320:	091b      	lsrs	r3, r3, #4
 8001322:	73fb      	strb	r3, [r7, #15]
	send_to_lcd(datatosend, 1);  // rs =1 for sending data
 8001324:	7bfb      	ldrb	r3, [r7, #15]
 8001326:	2101      	movs	r1, #1
 8001328:	4618      	mov	r0, r3
 800132a:	f7ff ff89 	bl	8001240 <send_to_lcd>

	/* send Lower nibble */
	datatosend = ((data)&0x0f);
 800132e:	79fb      	ldrb	r3, [r7, #7]
 8001330:	f003 030f 	and.w	r3, r3, #15
 8001334:	73fb      	strb	r3, [r7, #15]
	send_to_lcd(datatosend, 1);
 8001336:	7bfb      	ldrb	r3, [r7, #15]
 8001338:	2101      	movs	r1, #1
 800133a:	4618      	mov	r0, r3
 800133c:	f7ff ff80 	bl	8001240 <send_to_lcd>
}
 8001340:	bf00      	nop
 8001342:	3710      	adds	r7, #16
 8001344:	46bd      	mov	sp, r7
 8001346:	bd80      	pop	{r7, pc}

08001348 <lcd_clear>:

void lcd_clear (void)
{
 8001348:	b580      	push	{r7, lr}
 800134a:	af00      	add	r7, sp, #0
	lcd_send_cmd(0x01);
 800134c:	2001      	movs	r0, #1
 800134e:	f7ff ffc7 	bl	80012e0 <lcd_send_cmd>
	HAL_Delay(2);
 8001352:	2002      	movs	r0, #2
 8001354:	f000 fdbe 	bl	8001ed4 <HAL_Delay>
}
 8001358:	bf00      	nop
 800135a:	bd80      	pop	{r7, pc}

0800135c <lcd_put_cur>:

void lcd_put_cur(int row, int col)
{
 800135c:	b580      	push	{r7, lr}
 800135e:	b082      	sub	sp, #8
 8001360:	af00      	add	r7, sp, #0
 8001362:	6078      	str	r0, [r7, #4]
 8001364:	6039      	str	r1, [r7, #0]
 8001366:	687b      	ldr	r3, [r7, #4]
 8001368:	2b03      	cmp	r3, #3
 800136a:	d81f      	bhi.n	80013ac <lcd_put_cur+0x50>
 800136c:	a201      	add	r2, pc, #4	; (adr r2, 8001374 <lcd_put_cur+0x18>)
 800136e:	f852 f023 	ldr.w	pc, [r2, r3, lsl #2]
 8001372:	bf00      	nop
 8001374:	08001385 	.word	0x08001385
 8001378:	0800138f 	.word	0x0800138f
 800137c:	08001399 	.word	0x08001399
 8001380:	080013a3 	.word	0x080013a3
    switch (row)
    {
        case 0:
            col |= 0x80;
 8001384:	683b      	ldr	r3, [r7, #0]
 8001386:	f043 0380 	orr.w	r3, r3, #128	; 0x80
 800138a:	603b      	str	r3, [r7, #0]
            break;
 800138c:	e00e      	b.n	80013ac <lcd_put_cur+0x50>
        case 1:
            col |= 0xC0;
 800138e:	683b      	ldr	r3, [r7, #0]
 8001390:	f043 03c0 	orr.w	r3, r3, #192	; 0xc0
 8001394:	603b      	str	r3, [r7, #0]
            break;
 8001396:	e009      	b.n	80013ac <lcd_put_cur+0x50>
        case 2:
        	col |= 0x94;
 8001398:	683b      	ldr	r3, [r7, #0]
 800139a:	f043 0394 	orr.w	r3, r3, #148	; 0x94
 800139e:	603b      	str	r3, [r7, #0]
        	break;
 80013a0:	e004      	b.n	80013ac <lcd_put_cur+0x50>
        case 3:
        	col |= 0xD4;
 80013a2:	683b      	ldr	r3, [r7, #0]
 80013a4:	f043 03d4 	orr.w	r3, r3, #212	; 0xd4
 80013a8:	603b      	str	r3, [r7, #0]
        	break;
 80013aa:	bf00      	nop
    }

    lcd_send_cmd (col);
 80013ac:	683b      	ldr	r3, [r7, #0]
 80013ae:	b2db      	uxtb	r3, r3
 80013b0:	4618      	mov	r0, r3
 80013b2:	f7ff ff95 	bl	80012e0 <lcd_send_cmd>
}
 80013b6:	bf00      	nop
 80013b8:	3708      	adds	r7, #8
 80013ba:	46bd      	mov	sp, r7
 80013bc:	bd80      	pop	{r7, pc}
 80013be:	bf00      	nop

080013c0 <lcd_init>:

void lcd_init(void)
{
 80013c0:	b580      	push	{r7, lr}
 80013c2:	af00      	add	r7, sp, #0
//4 bit initialisation
//display initialisation
HAL_Delay(500);
 80013c4:	f44f 70fa 	mov.w	r0, #500	; 0x1f4
 80013c8:	f000 fd84 	bl	8001ed4 <HAL_Delay>
lcd_send_cmd(0x02); // Return Home
 80013cc:	2002      	movs	r0, #2
 80013ce:	f7ff ff87 	bl	80012e0 <lcd_send_cmd>
lcd_send_cmd(0x28); //4 bit mode
 80013d2:	2028      	movs	r0, #40	; 0x28
 80013d4:	f7ff ff84 	bl	80012e0 <lcd_send_cmd>
lcd_send_cmd(0x0C); //Display on/cursor off
 80013d8:	200c      	movs	r0, #12
 80013da:	f7ff ff81 	bl	80012e0 <lcd_send_cmd>
lcd_send_cmd(0x01); // clear display
 80013de:	2001      	movs	r0, #1
 80013e0:	f7ff ff7e 	bl	80012e0 <lcd_send_cmd>
HAL_Delay(100);
 80013e4:	2064      	movs	r0, #100	; 0x64
 80013e6:	f000 fd75 	bl	8001ed4 <HAL_Delay>
}
 80013ea:	bf00      	nop
 80013ec:	bd80      	pop	{r7, pc}

080013ee <lcd_send_string>:
//	HAL_Delay(1);
//	lcd_send_cmd (0x0C); //Display on/off control --> D = 1, C and B = 0. (Cursor and blink, last two bits)
//}

void lcd_send_string (char *str)
{
 80013ee:	b580      	push	{r7, lr}
 80013f0:	b082      	sub	sp, #8
 80013f2:	af00      	add	r7, sp, #0
 80013f4:	6078      	str	r0, [r7, #4]
	while (*str) lcd_send_data (*str++);
 80013f6:	e006      	b.n	8001406 <lcd_send_string+0x18>
 80013f8:	687b      	ldr	r3, [r7, #4]
 80013fa:	1c5a      	adds	r2, r3, #1
 80013fc:	607a      	str	r2, [r7, #4]
 80013fe:	781b      	ldrb	r3, [r3, #0]
 8001400:	4618      	mov	r0, r3
 8001402:	f7ff ff87 	bl	8001314 <lcd_send_data>
 8001406:	687b      	ldr	r3, [r7, #4]
 8001408:	781b      	ldrb	r3, [r3, #0]
 800140a:	2b00      	cmp	r3, #0
 800140c:	d1f4      	bne.n	80013f8 <lcd_send_string+0xa>
}
 800140e:	bf00      	nop
 8001410:	bf00      	nop
 8001412:	3708      	adds	r7, #8
 8001414:	46bd      	mov	sp, r7
 8001416:	bd80      	pop	{r7, pc}

08001418 <reverse>:
#define INC_FTOA_H_



void reverse(char* str, int len)
{
 8001418:	b480      	push	{r7}
 800141a:	b087      	sub	sp, #28
 800141c:	af00      	add	r7, sp, #0
 800141e:	6078      	str	r0, [r7, #4]
 8001420:	6039      	str	r1, [r7, #0]
	int i = 0, j = len - 1, temp;
 8001422:	2300      	movs	r3, #0
 8001424:	617b      	str	r3, [r7, #20]
 8001426:	683b      	ldr	r3, [r7, #0]
 8001428:	3b01      	subs	r3, #1
 800142a:	613b      	str	r3, [r7, #16]
	while (i < j) {
 800142c:	e018      	b.n	8001460 <reverse+0x48>
		temp = str[i];
 800142e:	697b      	ldr	r3, [r7, #20]
 8001430:	687a      	ldr	r2, [r7, #4]
 8001432:	4413      	add	r3, r2
 8001434:	781b      	ldrb	r3, [r3, #0]
 8001436:	60fb      	str	r3, [r7, #12]
		str[i] = str[j];
 8001438:	693b      	ldr	r3, [r7, #16]
 800143a:	687a      	ldr	r2, [r7, #4]
 800143c:	441a      	add	r2, r3
 800143e:	697b      	ldr	r3, [r7, #20]
 8001440:	6879      	ldr	r1, [r7, #4]
 8001442:	440b      	add	r3, r1
 8001444:	7812      	ldrb	r2, [r2, #0]
 8001446:	701a      	strb	r2, [r3, #0]
		str[j] = temp;
 8001448:	693b      	ldr	r3, [r7, #16]
 800144a:	687a      	ldr	r2, [r7, #4]
 800144c:	4413      	add	r3, r2
 800144e:	68fa      	ldr	r2, [r7, #12]
 8001450:	b2d2      	uxtb	r2, r2
 8001452:	701a      	strb	r2, [r3, #0]
		i++;
 8001454:	697b      	ldr	r3, [r7, #20]
 8001456:	3301      	adds	r3, #1
 8001458:	617b      	str	r3, [r7, #20]
		j--;
 800145a:	693b      	ldr	r3, [r7, #16]
 800145c:	3b01      	subs	r3, #1
 800145e:	613b      	str	r3, [r7, #16]
	while (i < j) {
 8001460:	697a      	ldr	r2, [r7, #20]
 8001462:	693b      	ldr	r3, [r7, #16]
 8001464:	429a      	cmp	r2, r3
 8001466:	dbe2      	blt.n	800142e <reverse+0x16>
	}
}
 8001468:	bf00      	nop
 800146a:	bf00      	nop
 800146c:	371c      	adds	r7, #28
 800146e:	46bd      	mov	sp, r7
 8001470:	bc80      	pop	{r7}
 8001472:	4770      	bx	lr

08001474 <intToStr>:
// Converts a given integer x to string str[].
// d is the number of digits required in the output.
// If d is more than the number of digits in x,
// then 0s are added at the beginning.
int intToStr(int x, char str[], int d)
{
 8001474:	b580      	push	{r7, lr}
 8001476:	b086      	sub	sp, #24
 8001478:	af00      	add	r7, sp, #0
 800147a:	60f8      	str	r0, [r7, #12]
 800147c:	60b9      	str	r1, [r7, #8]
 800147e:	607a      	str	r2, [r7, #4]
	int i = 0;
 8001480:	2300      	movs	r3, #0
 8001482:	617b      	str	r3, [r7, #20]
	while (x) {
 8001484:	e01d      	b.n	80014c2 <intToStr+0x4e>
		str[i++] = (x % 10) + '0';
 8001486:	68fa      	ldr	r2, [r7, #12]
 8001488:	4b1d      	ldr	r3, [pc, #116]	; (8001500 <intToStr+0x8c>)
 800148a:	fb83 1302 	smull	r1, r3, r3, r2
 800148e:	1099      	asrs	r1, r3, #2
 8001490:	17d3      	asrs	r3, r2, #31
 8001492:	1ac9      	subs	r1, r1, r3
 8001494:	460b      	mov	r3, r1
 8001496:	009b      	lsls	r3, r3, #2
 8001498:	440b      	add	r3, r1
 800149a:	005b      	lsls	r3, r3, #1
 800149c:	1ad1      	subs	r1, r2, r3
 800149e:	b2ca      	uxtb	r2, r1
 80014a0:	697b      	ldr	r3, [r7, #20]
 80014a2:	1c59      	adds	r1, r3, #1
 80014a4:	6179      	str	r1, [r7, #20]
 80014a6:	4619      	mov	r1, r3
 80014a8:	68bb      	ldr	r3, [r7, #8]
 80014aa:	440b      	add	r3, r1
 80014ac:	3230      	adds	r2, #48	; 0x30
 80014ae:	b2d2      	uxtb	r2, r2
 80014b0:	701a      	strb	r2, [r3, #0]
		x = x / 10;
 80014b2:	68fb      	ldr	r3, [r7, #12]
 80014b4:	4a12      	ldr	r2, [pc, #72]	; (8001500 <intToStr+0x8c>)
 80014b6:	fb82 1203 	smull	r1, r2, r2, r3
 80014ba:	1092      	asrs	r2, r2, #2
 80014bc:	17db      	asrs	r3, r3, #31
 80014be:	1ad3      	subs	r3, r2, r3
 80014c0:	60fb      	str	r3, [r7, #12]
	while (x) {
 80014c2:	68fb      	ldr	r3, [r7, #12]
 80014c4:	2b00      	cmp	r3, #0
 80014c6:	d1de      	bne.n	8001486 <intToStr+0x12>
	}

	// If number of digits required is more, then
	// add 0s at the beginning
	while (i < d)
 80014c8:	e007      	b.n	80014da <intToStr+0x66>
		str[i++] = '0';
 80014ca:	697b      	ldr	r3, [r7, #20]
 80014cc:	1c5a      	adds	r2, r3, #1
 80014ce:	617a      	str	r2, [r7, #20]
 80014d0:	461a      	mov	r2, r3
 80014d2:	68bb      	ldr	r3, [r7, #8]
 80014d4:	4413      	add	r3, r2
 80014d6:	2230      	movs	r2, #48	; 0x30
 80014d8:	701a      	strb	r2, [r3, #0]
	while (i < d)
 80014da:	697a      	ldr	r2, [r7, #20]
 80014dc:	687b      	ldr	r3, [r7, #4]
 80014de:	429a      	cmp	r2, r3
 80014e0:	dbf3      	blt.n	80014ca <intToStr+0x56>

	reverse(str, i);
 80014e2:	6979      	ldr	r1, [r7, #20]
 80014e4:	68b8      	ldr	r0, [r7, #8]
 80014e6:	f7ff ff97 	bl	8001418 <reverse>
	str[i] = '\0';
 80014ea:	697b      	ldr	r3, [r7, #20]
 80014ec:	68ba      	ldr	r2, [r7, #8]
 80014ee:	4413      	add	r3, r2
 80014f0:	2200      	movs	r2, #0
 80014f2:	701a      	strb	r2, [r3, #0]
	return i;
 80014f4:	697b      	ldr	r3, [r7, #20]
}
 80014f6:	4618      	mov	r0, r3
 80014f8:	3718      	adds	r7, #24
 80014fa:	46bd      	mov	sp, r7
 80014fc:	bd80      	pop	{r7, pc}
 80014fe:	bf00      	nop
 8001500:	66666667 	.word	0x66666667

08001504 <ftoa>:

// Converts a floating-point/double number to a string.
void ftoa(float n, char* res, int afterpoint)
{
 8001504:	b5b0      	push	{r4, r5, r7, lr}
 8001506:	b088      	sub	sp, #32
 8001508:	af00      	add	r7, sp, #0
 800150a:	60f8      	str	r0, [r7, #12]
 800150c:	60b9      	str	r1, [r7, #8]
 800150e:	607a      	str	r2, [r7, #4]
	// Extract integer part
	int ipart = (int)n;
 8001510:	68f8      	ldr	r0, [r7, #12]
 8001512:	f7ff fdad 	bl	8001070 <__aeabi_f2iz>
 8001516:	4603      	mov	r3, r0
 8001518:	61fb      	str	r3, [r7, #28]

	// Extract floating part
	float fpart = n - (float)ipart;
 800151a:	69f8      	ldr	r0, [r7, #28]
 800151c:	f7ff fb8e 	bl	8000c3c <__aeabi_i2f>
 8001520:	4603      	mov	r3, r0
 8001522:	4619      	mov	r1, r3
 8001524:	68f8      	ldr	r0, [r7, #12]
 8001526:	f7ff fad3 	bl	8000ad0 <__aeabi_fsub>
 800152a:	4603      	mov	r3, r0
 800152c:	61bb      	str	r3, [r7, #24]

	// convert integer part to string
	int i = intToStr(ipart, res, 0);
 800152e:	2200      	movs	r2, #0
 8001530:	68b9      	ldr	r1, [r7, #8]
 8001532:	69f8      	ldr	r0, [r7, #28]
 8001534:	f7ff ff9e 	bl	8001474 <intToStr>
 8001538:	6178      	str	r0, [r7, #20]

	// check for display option after point
	if (afterpoint != 0) {
 800153a:	687b      	ldr	r3, [r7, #4]
 800153c:	2b00      	cmp	r3, #0
 800153e:	d02c      	beq.n	800159a <ftoa+0x96>
		res[i] = '.'; // add dot
 8001540:	697b      	ldr	r3, [r7, #20]
 8001542:	68ba      	ldr	r2, [r7, #8]
 8001544:	4413      	add	r3, r2
 8001546:	222e      	movs	r2, #46	; 0x2e
 8001548:	701a      	strb	r2, [r3, #0]

		// Get the value of fraction part upto given no.
		// of points after dot. The third parameter
		// is needed to handle cases like 233.007
		fpart = fpart * pow(10, afterpoint);
 800154a:	69b8      	ldr	r0, [r7, #24]
 800154c:	f7fe ff64 	bl	8000418 <__aeabi_f2d>
 8001550:	4604      	mov	r4, r0
 8001552:	460d      	mov	r5, r1
 8001554:	6878      	ldr	r0, [r7, #4]
 8001556:	f7fe ff4d 	bl	80003f4 <__aeabi_i2d>
 800155a:	4602      	mov	r2, r0
 800155c:	460b      	mov	r3, r1
 800155e:	f04f 0000 	mov.w	r0, #0
 8001562:	4910      	ldr	r1, [pc, #64]	; (80015a4 <ftoa+0xa0>)
 8001564:	f002 fad4 	bl	8003b10 <pow>
 8001568:	4602      	mov	r2, r0
 800156a:	460b      	mov	r3, r1
 800156c:	4620      	mov	r0, r4
 800156e:	4629      	mov	r1, r5
 8001570:	f7fe ffaa 	bl	80004c8 <__aeabi_dmul>
 8001574:	4602      	mov	r2, r0
 8001576:	460b      	mov	r3, r1
 8001578:	4610      	mov	r0, r2
 800157a:	4619      	mov	r1, r3
 800157c:	f7ff fa54 	bl	8000a28 <__aeabi_d2f>
 8001580:	4603      	mov	r3, r0
 8001582:	61bb      	str	r3, [r7, #24]

		intToStr((int)fpart, res + i + 1, afterpoint);
 8001584:	69b8      	ldr	r0, [r7, #24]
 8001586:	f7ff fd73 	bl	8001070 <__aeabi_f2iz>
 800158a:	697b      	ldr	r3, [r7, #20]
 800158c:	3301      	adds	r3, #1
 800158e:	68ba      	ldr	r2, [r7, #8]
 8001590:	4413      	add	r3, r2
 8001592:	687a      	ldr	r2, [r7, #4]
 8001594:	4619      	mov	r1, r3
 8001596:	f7ff ff6d 	bl	8001474 <intToStr>
	}
}
 800159a:	bf00      	nop
 800159c:	3720      	adds	r7, #32
 800159e:	46bd      	mov	sp, r7
 80015a0:	bdb0      	pop	{r4, r5, r7, pc}
 80015a2:	bf00      	nop
 80015a4:	40240000 	.word	0x40240000

080015a8 <key_check>:
	int t1,t2;
	for(t1=0;t1<time;t1++)
		for(t2=0;t2<1104;t2++);
}
void key_check()
{
 80015a8:	b580      	push	{r7, lr}
 80015aa:	b082      	sub	sp, #8
 80015ac:	af00      	add	r7, sp, #0
	int k=1;
 80015ae:	2301      	movs	r3, #1
 80015b0:	607b      	str	r3, [r7, #4]
loop:
    HAL_Delay(500);
 80015b2:	f44f 70fa 	mov.w	r0, #500	; 0x1f4
 80015b6:	f000 fc8d 	bl	8001ed4 <HAL_Delay>
	if(GPIO_PIN_RESET==HAL_GPIO_ReadPin(GPIOB, key1_Pin))
 80015ba:	2140      	movs	r1, #64	; 0x40
 80015bc:	486e      	ldr	r0, [pc, #440]	; (8001778 <key_check+0x1d0>)
 80015be:	f001 fd4b 	bl	8003058 <HAL_GPIO_ReadPin>
 80015c2:	4603      	mov	r3, r0
 80015c4:	2b00      	cmp	r3, #0
 80015c6:	d102      	bne.n	80015ce <key_check+0x26>
		k=k+1;
 80015c8:	687b      	ldr	r3, [r7, #4]
 80015ca:	3301      	adds	r3, #1
 80015cc:	607b      	str	r3, [r7, #4]
	if(k>2)
 80015ce:	687b      	ldr	r3, [r7, #4]
 80015d0:	2b02      	cmp	r3, #2
 80015d2:	dd01      	ble.n	80015d8 <key_check+0x30>
		k=0;
 80015d4:	2300      	movs	r3, #0
 80015d6:	607b      	str	r3, [r7, #4]

	switch(k)
 80015d8:	687b      	ldr	r3, [r7, #4]
 80015da:	2b01      	cmp	r3, #1
 80015dc:	d003      	beq.n	80015e6 <key_check+0x3e>
 80015de:	687b      	ldr	r3, [r7, #4]
 80015e0:	2b02      	cmp	r3, #2
 80015e2:	d018      	beq.n	8001616 <key_check+0x6e>
 80015e4:	e092      	b.n	800170c <key_check+0x164>
	{
	case 1:
		lcd_clear();
 80015e6:	f7ff feaf 	bl	8001348 <lcd_clear>
		lcd_put_cur(0, 0);
 80015ea:	2100      	movs	r1, #0
 80015ec:	2000      	movs	r0, #0
 80015ee:	f7ff feb5 	bl	800135c <lcd_put_cur>
		lcd_send_string("set Point:");
 80015f2:	4862      	ldr	r0, [pc, #392]	; (800177c <key_check+0x1d4>)
 80015f4:	f7ff fefb 	bl	80013ee <lcd_send_string>
		ftoa(setpoint, res, 1);
 80015f8:	4b61      	ldr	r3, [pc, #388]	; (8001780 <key_check+0x1d8>)
 80015fa:	681b      	ldr	r3, [r3, #0]
 80015fc:	2201      	movs	r2, #1
 80015fe:	4961      	ldr	r1, [pc, #388]	; (8001784 <key_check+0x1dc>)
 8001600:	4618      	mov	r0, r3
 8001602:	f7ff ff7f 	bl	8001504 <ftoa>
		lcd_put_cur(0, 11);
 8001606:	210b      	movs	r1, #11
 8001608:	2000      	movs	r0, #0
 800160a:	f7ff fea7 	bl	800135c <lcd_put_cur>
		lcd_send_string(res);
 800160e:	485d      	ldr	r0, [pc, #372]	; (8001784 <key_check+0x1dc>)
 8001610:	f7ff feed 	bl	80013ee <lcd_send_string>
		break;
 8001614:	e07a      	b.n	800170c <key_check+0x164>
	case 2:
		lcd_clear();
 8001616:	f7ff fe97 	bl	8001348 <lcd_clear>
		lcd_put_cur(0, 0);
 800161a:	2100      	movs	r1, #0
 800161c:	2000      	movs	r0, #0
 800161e:	f7ff fe9d 	bl	800135c <lcd_put_cur>
		lcd_send_string("Offset:");
 8001622:	4859      	ldr	r0, [pc, #356]	; (8001788 <key_check+0x1e0>)
 8001624:	f7ff fee3 	bl	80013ee <lcd_send_string>
		ftoa(offset, res, 1);
 8001628:	4b58      	ldr	r3, [pc, #352]	; (800178c <key_check+0x1e4>)
 800162a:	681b      	ldr	r3, [r3, #0]
 800162c:	2201      	movs	r2, #1
 800162e:	4955      	ldr	r1, [pc, #340]	; (8001784 <key_check+0x1dc>)
 8001630:	4618      	mov	r0, r3
 8001632:	f7ff ff67 	bl	8001504 <ftoa>
		lcd_put_cur(0, 8);
 8001636:	2108      	movs	r1, #8
 8001638:	2000      	movs	r0, #0
 800163a:	f7ff fe8f 	bl	800135c <lcd_put_cur>
		lcd_send_string(res);
 800163e:	4851      	ldr	r0, [pc, #324]	; (8001784 <key_check+0x1dc>)
 8001640:	f7ff fed5 	bl	80013ee <lcd_send_string>
		if(GPIO_PIN_RESET==HAL_GPIO_ReadPin(GPIOB, key2_Pin))
 8001644:	2180      	movs	r1, #128	; 0x80
 8001646:	484c      	ldr	r0, [pc, #304]	; (8001778 <key_check+0x1d0>)
 8001648:	f001 fd06 	bl	8003058 <HAL_GPIO_ReadPin>
 800164c:	4603      	mov	r3, r0
 800164e:	2b00      	cmp	r3, #0
 8001650:	d124      	bne.n	800169c <key_check+0xf4>
		{
			HAL_Delay(500);
 8001652:	f44f 70fa 	mov.w	r0, #500	; 0x1f4
 8001656:	f000 fc3d 	bl	8001ed4 <HAL_Delay>
			offset=offset+0.1;
 800165a:	4b4c      	ldr	r3, [pc, #304]	; (800178c <key_check+0x1e4>)
 800165c:	681b      	ldr	r3, [r3, #0]
 800165e:	4618      	mov	r0, r3
 8001660:	f7fe feda 	bl	8000418 <__aeabi_f2d>
 8001664:	a342      	add	r3, pc, #264	; (adr r3, 8001770 <key_check+0x1c8>)
 8001666:	e9d3 2300 	ldrd	r2, r3, [r3]
 800166a:	f7fe fd77 	bl	800015c <__adddf3>
 800166e:	4602      	mov	r2, r0
 8001670:	460b      	mov	r3, r1
 8001672:	4610      	mov	r0, r2
 8001674:	4619      	mov	r1, r3
 8001676:	f7ff f9d7 	bl	8000a28 <__aeabi_d2f>
 800167a:	4603      	mov	r3, r0
 800167c:	4a43      	ldr	r2, [pc, #268]	; (800178c <key_check+0x1e4>)
 800167e:	6013      	str	r3, [r2, #0]
			ftoa(offset, res, 1);
 8001680:	4b42      	ldr	r3, [pc, #264]	; (800178c <key_check+0x1e4>)
 8001682:	681b      	ldr	r3, [r3, #0]
 8001684:	2201      	movs	r2, #1
 8001686:	493f      	ldr	r1, [pc, #252]	; (8001784 <key_check+0x1dc>)
 8001688:	4618      	mov	r0, r3
 800168a:	f7ff ff3b 	bl	8001504 <ftoa>
			lcd_put_cur(0, 8);
 800168e:	2108      	movs	r1, #8
 8001690:	2000      	movs	r0, #0
 8001692:	f7ff fe63 	bl	800135c <lcd_put_cur>
			lcd_send_string(res);
 8001696:	483b      	ldr	r0, [pc, #236]	; (8001784 <key_check+0x1dc>)
 8001698:	f7ff fea9 	bl	80013ee <lcd_send_string>
		}
		if(GPIO_PIN_RESET==HAL_GPIO_ReadPin(GPIOB, key3_Pin))
 800169c:	f44f 7180 	mov.w	r1, #256	; 0x100
 80016a0:	4835      	ldr	r0, [pc, #212]	; (8001778 <key_check+0x1d0>)
 80016a2:	f001 fcd9 	bl	8003058 <HAL_GPIO_ReadPin>
 80016a6:	4603      	mov	r3, r0
 80016a8:	2b00      	cmp	r3, #0
 80016aa:	d12e      	bne.n	800170a <key_check+0x162>
		{
			HAL_Delay(500);
 80016ac:	f44f 70fa 	mov.w	r0, #500	; 0x1f4
 80016b0:	f000 fc10 	bl	8001ed4 <HAL_Delay>
			if(offset>0)
 80016b4:	4b35      	ldr	r3, [pc, #212]	; (800178c <key_check+0x1e4>)
 80016b6:	681b      	ldr	r3, [r3, #0]
 80016b8:	f04f 0100 	mov.w	r1, #0
 80016bc:	4618      	mov	r0, r3
 80016be:	f7ff fccd 	bl	800105c <__aeabi_fcmpgt>
 80016c2:	4603      	mov	r3, r0
 80016c4:	2b00      	cmp	r3, #0
 80016c6:	d012      	beq.n	80016ee <key_check+0x146>
			offset=offset-0.1;
 80016c8:	4b30      	ldr	r3, [pc, #192]	; (800178c <key_check+0x1e4>)
 80016ca:	681b      	ldr	r3, [r3, #0]
 80016cc:	4618      	mov	r0, r3
 80016ce:	f7fe fea3 	bl	8000418 <__aeabi_f2d>
 80016d2:	a327      	add	r3, pc, #156	; (adr r3, 8001770 <key_check+0x1c8>)
 80016d4:	e9d3 2300 	ldrd	r2, r3, [r3]
 80016d8:	f7fe fd3e 	bl	8000158 <__aeabi_dsub>
 80016dc:	4602      	mov	r2, r0
 80016de:	460b      	mov	r3, r1
 80016e0:	4610      	mov	r0, r2
 80016e2:	4619      	mov	r1, r3
 80016e4:	f7ff f9a0 	bl	8000a28 <__aeabi_d2f>
 80016e8:	4603      	mov	r3, r0
 80016ea:	4a28      	ldr	r2, [pc, #160]	; (800178c <key_check+0x1e4>)
 80016ec:	6013      	str	r3, [r2, #0]
			ftoa(offset, res, 1);
 80016ee:	4b27      	ldr	r3, [pc, #156]	; (800178c <key_check+0x1e4>)
 80016f0:	681b      	ldr	r3, [r3, #0]
 80016f2:	2201      	movs	r2, #1
 80016f4:	4923      	ldr	r1, [pc, #140]	; (8001784 <key_check+0x1dc>)
 80016f6:	4618      	mov	r0, r3
 80016f8:	f7ff ff04 	bl	8001504 <ftoa>
			lcd_put_cur(0, 8);
 80016fc:	2108      	movs	r1, #8
 80016fe:	2000      	movs	r0, #0
 8001700:	f7ff fe2c 	bl	800135c <lcd_put_cur>
			lcd_send_string(res);
 8001704:	481f      	ldr	r0, [pc, #124]	; (8001784 <key_check+0x1dc>)
 8001706:	f7ff fe72 	bl	80013ee <lcd_send_string>
		}
		break;
 800170a:	bf00      	nop
	}
	if(GPIO_PIN_RESET==HAL_GPIO_ReadPin(GPIOB, key4_Pin))
 800170c:	f44f 7100 	mov.w	r1, #512	; 0x200
 8001710:	4819      	ldr	r0, [pc, #100]	; (8001778 <key_check+0x1d0>)
 8001712:	f001 fca1 	bl	8003058 <HAL_GPIO_ReadPin>
 8001716:	4603      	mov	r3, r0
 8001718:	2b00      	cmp	r3, #0
 800171a:	f47f af4a 	bne.w	80015b2 <key_check+0xa>
	{
		k=0;
 800171e:	2300      	movs	r3, #0
 8001720:	607b      	str	r3, [r7, #4]
		data2[0]=offset*10;
 8001722:	4b1a      	ldr	r3, [pc, #104]	; (800178c <key_check+0x1e4>)
 8001724:	681b      	ldr	r3, [r3, #0]
 8001726:	491a      	ldr	r1, [pc, #104]	; (8001790 <key_check+0x1e8>)
 8001728:	4618      	mov	r0, r3
 800172a:	f7ff fadb 	bl	8000ce4 <__aeabi_fmul>
 800172e:	4603      	mov	r3, r0
 8001730:	4618      	mov	r0, r3
 8001732:	f7ff fcc3 	bl	80010bc <__aeabi_f2uiz>
 8001736:	4603      	mov	r3, r0
 8001738:	4a16      	ldr	r2, [pc, #88]	; (8001794 <key_check+0x1ec>)
 800173a:	6013      	str	r3, [r2, #0]
		data2[1]=setpoint*10;
 800173c:	4b10      	ldr	r3, [pc, #64]	; (8001780 <key_check+0x1d8>)
 800173e:	681b      	ldr	r3, [r3, #0]
 8001740:	4913      	ldr	r1, [pc, #76]	; (8001790 <key_check+0x1e8>)
 8001742:	4618      	mov	r0, r3
 8001744:	f7ff face 	bl	8000ce4 <__aeabi_fmul>
 8001748:	4603      	mov	r3, r0
 800174a:	4618      	mov	r0, r3
 800174c:	f7ff fcb6 	bl	80010bc <__aeabi_f2uiz>
 8001750:	4603      	mov	r3, r0
 8001752:	4a10      	ldr	r2, [pc, #64]	; (8001794 <key_check+0x1ec>)
 8001754:	6053      	str	r3, [r2, #4]
		Flash_Write_Data(0x0801FC00 , (uint32_t *)data2,5);
 8001756:	2205      	movs	r2, #5
 8001758:	490e      	ldr	r1, [pc, #56]	; (8001794 <key_check+0x1ec>)
 800175a:	480f      	ldr	r0, [pc, #60]	; (8001798 <key_check+0x1f0>)
 800175c:	f7ff fcf8 	bl	8001150 <Flash_Write_Data>
		lcd_clear();
 8001760:	f7ff fdf2 	bl	8001348 <lcd_clear>
	}
	else
		goto loop;

}
 8001764:	bf00      	nop
 8001766:	3708      	adds	r7, #8
 8001768:	46bd      	mov	sp, r7
 800176a:	bd80      	pop	{r7, pc}
 800176c:	f3af 8000 	nop.w
 8001770:	9999999a 	.word	0x9999999a
 8001774:	3fb99999 	.word	0x3fb99999
 8001778:	40010c00 	.word	0x40010c00
 800177c:	08004a48 	.word	0x08004a48
 8001780:	200000d0 	.word	0x200000d0
 8001784:	2000013c 	.word	0x2000013c
 8001788:	08004a54 	.word	0x08004a54
 800178c:	20000094 	.word	0x20000094
 8001790:	41200000 	.word	0x41200000
 8001794:	2000009c 	.word	0x2000009c
 8001798:	0801fc00 	.word	0x0801fc00

0800179c <main>:
/**
 * @brief  The application entry point.
 * @retval int
 */
int main(void)
{
 800179c:	b580      	push	{r7, lr}
 800179e:	b082      	sub	sp, #8
 80017a0:	af00      	add	r7, sp, #0
	/* USER CODE END 1 */

	/* MCU Configuration--------------------------------------------------------*/

	/* Reset of all peripherals, Initializes the Flash interface and the Systick. */
	HAL_Init();
 80017a2:	f000 fb35 	bl	8001e10 <HAL_Init>
	/* USER CODE BEGIN Init */

	/* USER CODE END Init */

	/* Configure the system clock */
	SystemClock_Config();
 80017a6:	f000 f94f 	bl	8001a48 <SystemClock_Config>
	/* USER CODE BEGIN SysInit */

	/* USER CODE END SysInit */

	/* Initialize all configured peripherals */
	MX_GPIO_Init();
 80017aa:	f000 f9eb 	bl	8001b84 <MX_GPIO_Init>
	MX_ADC1_Init();
 80017ae:	f000 f99b 	bl	8001ae8 <MX_ADC1_Init>
	/* USER CODE BEGIN 2 */
	  lcd_init ();
 80017b2:	f7ff fe05 	bl	80013c0 <lcd_init>
//	  lcd_put_cur(1, 0);
//	  lcd_send_string("CONTROLLERS TECH");
//	  HAL_Delay(3000);


		  lcd_put_cur(0, 2);
 80017b6:	2102      	movs	r1, #2
 80017b8:	2000      	movs	r0, #0
 80017ba:	f7ff fdcf 	bl	800135c <lcd_put_cur>
		  lcd_send_string("Welcome ");
 80017be:	4873      	ldr	r0, [pc, #460]	; (800198c <main+0x1f0>)
 80017c0:	f7ff fe15 	bl	80013ee <lcd_send_string>
		  lcd_put_cur(1, 5);
 80017c4:	2105      	movs	r1, #5
 80017c6:	2001      	movs	r0, #1
 80017c8:	f7ff fdc8 	bl	800135c <lcd_put_cur>
		  lcd_send_string("To ");
 80017cc:	4870      	ldr	r0, [pc, #448]	; (8001990 <main+0x1f4>)
 80017ce:	f7ff fe0e 	bl	80013ee <lcd_send_string>
		  lcd_put_cur(2, 0);
 80017d2:	2100      	movs	r1, #0
 80017d4:	2002      	movs	r0, #2
 80017d6:	f7ff fdc1 	bl	800135c <lcd_put_cur>
		  lcd_send_string("Borgwarner ");
 80017da:	486e      	ldr	r0, [pc, #440]	; (8001994 <main+0x1f8>)
 80017dc:	f7ff fe07 	bl	80013ee <lcd_send_string>
		   for(int i=0;i<5;i++)
 80017e0:	2300      	movs	r3, #0
 80017e2:	607b      	str	r3, [r7, #4]
 80017e4:	e009      	b.n	80017fa <main+0x5e>
		   {
			   lcd_send_cmd(0x1c);		    /* Shift entire display to right */
 80017e6:	201c      	movs	r0, #28
 80017e8:	f7ff fd7a 	bl	80012e0 <lcd_send_cmd>
			   HAL_Delay(300);
 80017ec:	f44f 7096 	mov.w	r0, #300	; 0x12c
 80017f0:	f000 fb70 	bl	8001ed4 <HAL_Delay>
		   for(int i=0;i<5;i++)
 80017f4:	687b      	ldr	r3, [r7, #4]
 80017f6:	3301      	adds	r3, #1
 80017f8:	607b      	str	r3, [r7, #4]
 80017fa:	687b      	ldr	r3, [r7, #4]
 80017fc:	2b04      	cmp	r3, #4
 80017fe:	ddf2      	ble.n	80017e6 <main+0x4a>
		   }
		   for(int i=5;i>0;i--)
 8001800:	2305      	movs	r3, #5
 8001802:	603b      	str	r3, [r7, #0]
 8001804:	e009      	b.n	800181a <main+0x7e>
		   {
			   lcd_send_cmd(0x18);	        /* Shift entire display to left */
 8001806:	2018      	movs	r0, #24
 8001808:	f7ff fd6a 	bl	80012e0 <lcd_send_cmd>
			   HAL_Delay(300);
 800180c:	f44f 7096 	mov.w	r0, #300	; 0x12c
 8001810:	f000 fb60 	bl	8001ed4 <HAL_Delay>
		   for(int i=5;i>0;i--)
 8001814:	683b      	ldr	r3, [r7, #0]
 8001816:	3b01      	subs	r3, #1
 8001818:	603b      	str	r3, [r7, #0]
 800181a:	683b      	ldr	r3, [r7, #0]
 800181c:	2b00      	cmp	r3, #0
 800181e:	dcf2      	bgt.n	8001806 <main+0x6a>
		   }
	  lcd_clear();
 8001820:	f7ff fd92 	bl	8001348 <lcd_clear>
     // HAL_Delay(2000);
	  Flash_Read_Data(0x0801FC00 ,Rx_Data, 5);
 8001824:	2205      	movs	r2, #5
 8001826:	495c      	ldr	r1, [pc, #368]	; (8001998 <main+0x1fc>)
 8001828:	485c      	ldr	r0, [pc, #368]	; (800199c <main+0x200>)
 800182a:	f7ff fceb 	bl	8001204 <Flash_Read_Data>
	  offset=(float)Rx_Data[0]/(float)10;
 800182e:	4b5a      	ldr	r3, [pc, #360]	; (8001998 <main+0x1fc>)
 8001830:	681b      	ldr	r3, [r3, #0]
 8001832:	4618      	mov	r0, r3
 8001834:	f7ff f9fe 	bl	8000c34 <__aeabi_ui2f>
 8001838:	4603      	mov	r3, r0
 800183a:	4959      	ldr	r1, [pc, #356]	; (80019a0 <main+0x204>)
 800183c:	4618      	mov	r0, r3
 800183e:	f7ff fb05 	bl	8000e4c <__aeabi_fdiv>
 8001842:	4603      	mov	r3, r0
 8001844:	461a      	mov	r2, r3
 8001846:	4b57      	ldr	r3, [pc, #348]	; (80019a4 <main+0x208>)
 8001848:	601a      	str	r2, [r3, #0]
	  setpoint=(float)Rx_Data[1]/(float)10;
 800184a:	4b53      	ldr	r3, [pc, #332]	; (8001998 <main+0x1fc>)
 800184c:	685b      	ldr	r3, [r3, #4]
 800184e:	4618      	mov	r0, r3
 8001850:	f7ff f9f0 	bl	8000c34 <__aeabi_ui2f>
 8001854:	4603      	mov	r3, r0
 8001856:	4952      	ldr	r1, [pc, #328]	; (80019a0 <main+0x204>)
 8001858:	4618      	mov	r0, r3
 800185a:	f7ff faf7 	bl	8000e4c <__aeabi_fdiv>
 800185e:	4603      	mov	r3, r0
 8001860:	461a      	mov	r2, r3
 8001862:	4b51      	ldr	r3, [pc, #324]	; (80019a8 <main+0x20c>)
 8001864:	601a      	str	r2, [r3, #0]

	while (1)
	{
		/* USER CODE END WHILE */
		HAL_ADC_Start_IT(&hadc1);
 8001866:	4851      	ldr	r0, [pc, #324]	; (80019ac <main+0x210>)
 8001868:	f000 fc30 	bl	80020cc <HAL_ADC_Start_IT>
		if(GPIO_PIN_RESET==HAL_GPIO_ReadPin(GPIOB, key1_Pin))
 800186c:	2140      	movs	r1, #64	; 0x40
 800186e:	4850      	ldr	r0, [pc, #320]	; (80019b0 <main+0x214>)
 8001870:	f001 fbf2 	bl	8003058 <HAL_GPIO_ReadPin>
 8001874:	4603      	mov	r3, r0
 8001876:	2b00      	cmp	r3, #0
 8001878:	d102      	bne.n	8001880 <main+0xe4>
		{
			key_check();
 800187a:	f7ff fe95 	bl	80015a8 <key_check>
 800187e:	e7f2      	b.n	8001866 <main+0xca>
		}
		else
		{
			//lcd_clear();
			itoa(adcCount, adcVal2, 10);
 8001880:	4b4c      	ldr	r3, [pc, #304]	; (80019b4 <main+0x218>)
 8001882:	681b      	ldr	r3, [r3, #0]
 8001884:	220a      	movs	r2, #10
 8001886:	494c      	ldr	r1, [pc, #304]	; (80019b8 <main+0x21c>)
 8001888:	4618      	mov	r0, r3
 800188a:	f002 f8f5 	bl	8003a78 <itoa>
			lcd_put_cur(0, 0);
 800188e:	2100      	movs	r1, #0
 8001890:	2000      	movs	r0, #0
 8001892:	f7ff fd63 	bl	800135c <lcd_put_cur>
		    lcd_send_string("ADC Count:");
 8001896:	4849      	ldr	r0, [pc, #292]	; (80019bc <main+0x220>)
 8001898:	f7ff fda9 	bl	80013ee <lcd_send_string>
			lcd_send_string(adcVal2);
 800189c:	4846      	ldr	r0, [pc, #280]	; (80019b8 <main+0x21c>)
 800189e:	f7ff fda6 	bl	80013ee <lcd_send_string>
			ftoa(adcVal, Scale_mm_val, 1);
 80018a2:	4b47      	ldr	r3, [pc, #284]	; (80019c0 <main+0x224>)
 80018a4:	681b      	ldr	r3, [r3, #0]
 80018a6:	2201      	movs	r2, #1
 80018a8:	4946      	ldr	r1, [pc, #280]	; (80019c4 <main+0x228>)
 80018aa:	4618      	mov	r0, r3
 80018ac:	f7ff fe2a 	bl	8001504 <ftoa>
			// LCD_String_xy(3,0,"Scale:");
			lcd_put_cur(1, 5);
 80018b0:	2105      	movs	r1, #5
 80018b2:	2001      	movs	r0, #1
 80018b4:	f7ff fd52 	bl	800135c <lcd_put_cur>
			lcd_send_string(Scale_mm_val);
 80018b8:	4842      	ldr	r0, [pc, #264]	; (80019c4 <main+0x228>)
 80018ba:	f7ff fd98 	bl	80013ee <lcd_send_string>
			lcd_send_string("mm");
 80018be:	4842      	ldr	r0, [pc, #264]	; (80019c8 <main+0x22c>)
 80018c0:	f7ff fd95 	bl	80013ee <lcd_send_string>
			//check for value of scale with offset
			if(GPIO_PIN_RESET!=HAL_GPIO_ReadPin(GPIOB, key4_Pin))
 80018c4:	f44f 7100 	mov.w	r1, #512	; 0x200
 80018c8:	4839      	ldr	r0, [pc, #228]	; (80019b0 <main+0x214>)
 80018ca:	f001 fbc5 	bl	8003058 <HAL_GPIO_ReadPin>
 80018ce:	4603      	mov	r3, r0
 80018d0:	2b00      	cmp	r3, #0
 80018d2:	d003      	beq.n	80018dc <main+0x140>
			{
				setpoint=adcVal;
 80018d4:	4b3a      	ldr	r3, [pc, #232]	; (80019c0 <main+0x224>)
 80018d6:	681b      	ldr	r3, [r3, #0]
 80018d8:	4a33      	ldr	r2, [pc, #204]	; (80019a8 <main+0x20c>)
 80018da:	6013      	str	r3, [r2, #0]
			}
			if((adcVal<168)&&(GPIO_PIN_RESET==HAL_GPIO_ReadPin(GPIOB, Phenumaticc_Pin)))
 80018dc:	4b38      	ldr	r3, [pc, #224]	; (80019c0 <main+0x224>)
 80018de:	681b      	ldr	r3, [r3, #0]
 80018e0:	493a      	ldr	r1, [pc, #232]	; (80019cc <main+0x230>)
 80018e2:	4618      	mov	r0, r3
 80018e4:	f7ff fb9c 	bl	8001020 <__aeabi_fcmplt>
 80018e8:	4603      	mov	r3, r0
 80018ea:	2b00      	cmp	r3, #0
 80018ec:	d04d      	beq.n	800198a <main+0x1ee>
 80018ee:	f44f 5180 	mov.w	r1, #4096	; 0x1000
 80018f2:	482f      	ldr	r0, [pc, #188]	; (80019b0 <main+0x214>)
 80018f4:	f001 fbb0 	bl	8003058 <HAL_GPIO_ReadPin>
 80018f8:	4603      	mov	r3, r0
 80018fa:	2b00      	cmp	r3, #0
 80018fc:	d1b3      	bne.n	8001866 <main+0xca>
			{
				if((setpoint<(adcVal+setpoint))&&(setpoint>(setpoint-offset)))
 80018fe:	4b30      	ldr	r3, [pc, #192]	; (80019c0 <main+0x224>)
 8001900:	681b      	ldr	r3, [r3, #0]
 8001902:	4a29      	ldr	r2, [pc, #164]	; (80019a8 <main+0x20c>)
 8001904:	6812      	ldr	r2, [r2, #0]
 8001906:	4611      	mov	r1, r2
 8001908:	4618      	mov	r0, r3
 800190a:	f7ff f8e3 	bl	8000ad4 <__addsf3>
 800190e:	4603      	mov	r3, r0
 8001910:	461a      	mov	r2, r3
 8001912:	4b25      	ldr	r3, [pc, #148]	; (80019a8 <main+0x20c>)
 8001914:	681b      	ldr	r3, [r3, #0]
 8001916:	4619      	mov	r1, r3
 8001918:	4610      	mov	r0, r2
 800191a:	f7ff fb9f 	bl	800105c <__aeabi_fcmpgt>
 800191e:	4603      	mov	r3, r0
 8001920:	2b00      	cmp	r3, #0
 8001922:	d01b      	beq.n	800195c <main+0x1c0>
 8001924:	4b20      	ldr	r3, [pc, #128]	; (80019a8 <main+0x20c>)
 8001926:	681b      	ldr	r3, [r3, #0]
 8001928:	4a1e      	ldr	r2, [pc, #120]	; (80019a4 <main+0x208>)
 800192a:	6812      	ldr	r2, [r2, #0]
 800192c:	4611      	mov	r1, r2
 800192e:	4618      	mov	r0, r3
 8001930:	f7ff f8ce 	bl	8000ad0 <__aeabi_fsub>
 8001934:	4603      	mov	r3, r0
 8001936:	461a      	mov	r2, r3
 8001938:	4b1b      	ldr	r3, [pc, #108]	; (80019a8 <main+0x20c>)
 800193a:	681b      	ldr	r3, [r3, #0]
 800193c:	4619      	mov	r1, r3
 800193e:	4610      	mov	r0, r2
 8001940:	f7ff fb6e 	bl	8001020 <__aeabi_fcmplt>
 8001944:	4603      	mov	r3, r0
 8001946:	2b00      	cmp	r3, #0
 8001948:	d008      	beq.n	800195c <main+0x1c0>
				{
					//component ok
					HAL_GPIO_WritePin(GPIOB, componentok_Pin, GPIO_PIN_SET);
 800194a:	2201      	movs	r2, #1
 800194c:	2108      	movs	r1, #8
 800194e:	4818      	ldr	r0, [pc, #96]	; (80019b0 <main+0x214>)
 8001950:	f001 fb99 	bl	8003086 <HAL_GPIO_WritePin>
					j=0;
 8001954:	4b1e      	ldr	r3, [pc, #120]	; (80019d0 <main+0x234>)
 8001956:	2200      	movs	r2, #0
 8001958:	601a      	str	r2, [r3, #0]
 800195a:	e016      	b.n	800198a <main+0x1ee>
				}
				else
				{
					//component Not ok
					HAL_GPIO_WritePin(GPIOB, componentNOTok_Pin, GPIO_PIN_SET);
 800195c:	2201      	movs	r2, #1
 800195e:	2110      	movs	r1, #16
 8001960:	4813      	ldr	r0, [pc, #76]	; (80019b0 <main+0x214>)
 8001962:	f001 fb90 	bl	8003086 <HAL_GPIO_WritePin>
					j++;
 8001966:	4b1a      	ldr	r3, [pc, #104]	; (80019d0 <main+0x234>)
 8001968:	681b      	ldr	r3, [r3, #0]
 800196a:	3301      	adds	r3, #1
 800196c:	4a18      	ldr	r2, [pc, #96]	; (80019d0 <main+0x234>)
 800196e:	6013      	str	r3, [r2, #0]
					if(j==5)
 8001970:	4b17      	ldr	r3, [pc, #92]	; (80019d0 <main+0x234>)
 8001972:	681b      	ldr	r3, [r3, #0]
 8001974:	2b05      	cmp	r3, #5
 8001976:	f47f af76 	bne.w	8001866 <main+0xca>
					{
						j=0;
 800197a:	4b15      	ldr	r3, [pc, #84]	; (80019d0 <main+0x234>)
 800197c:	2200      	movs	r2, #0
 800197e:	601a      	str	r2, [r3, #0]
						//alarm relay
						HAL_GPIO_WritePin(GPIOB, Alarm_Pin, GPIO_PIN_SET);
 8001980:	2201      	movs	r2, #1
 8001982:	2120      	movs	r1, #32
 8001984:	480a      	ldr	r0, [pc, #40]	; (80019b0 <main+0x214>)
 8001986:	f001 fb7e 	bl	8003086 <HAL_GPIO_WritePin>
		HAL_ADC_Start_IT(&hadc1);
 800198a:	e76c      	b.n	8001866 <main+0xca>
 800198c:	08004a5c 	.word	0x08004a5c
 8001990:	08004a68 	.word	0x08004a68
 8001994:	08004a6c 	.word	0x08004a6c
 8001998:	2000011c 	.word	0x2000011c
 800199c:	0801fc00 	.word	0x0801fc00
 80019a0:	41200000 	.word	0x41200000
 80019a4:	20000094 	.word	0x20000094
 80019a8:	200000d0 	.word	0x200000d0
 80019ac:	200000d4 	.word	0x200000d4
 80019b0:	40010c00 	.word	0x40010c00
 80019b4:	200000b0 	.word	0x200000b0
 80019b8:	200000c4 	.word	0x200000c4
 80019bc:	08004a78 	.word	0x08004a78
 80019c0:	20000114 	.word	0x20000114
 80019c4:	20000108 	.word	0x20000108
 80019c8:	08004a84 	.word	0x08004a84
 80019cc:	43280000 	.word	0x43280000
 80019d0:	20000098 	.word	0x20000098
 80019d4:	00000000 	.word	0x00000000

080019d8 <HAL_ADC_ConvCpltCallback>:
	}
	/* USER CODE END 3 */
}

void HAL_ADC_ConvCpltCallback(ADC_HandleTypeDef* hadc)
{
 80019d8:	b580      	push	{r7, lr}
 80019da:	b082      	sub	sp, #8
 80019dc:	af00      	add	r7, sp, #0
 80019de:	6078      	str	r0, [r7, #4]
	adcCount = HAL_ADC_GetValue(&hadc1);
 80019e0:	4815      	ldr	r0, [pc, #84]	; (8001a38 <HAL_ADC_ConvCpltCallback+0x60>)
 80019e2:	f000 fc29 	bl	8002238 <HAL_ADC_GetValue>
 80019e6:	4603      	mov	r3, r0
 80019e8:	4a14      	ldr	r2, [pc, #80]	; (8001a3c <HAL_ADC_ConvCpltCallback+0x64>)
 80019ea:	6013      	str	r3, [r2, #0]
	adcVal = (178.0 - (float)((float)adcCount * 0.04524));
 80019ec:	4b13      	ldr	r3, [pc, #76]	; (8001a3c <HAL_ADC_ConvCpltCallback+0x64>)
 80019ee:	681b      	ldr	r3, [r3, #0]
 80019f0:	4618      	mov	r0, r3
 80019f2:	f7ff f91f 	bl	8000c34 <__aeabi_ui2f>
 80019f6:	4603      	mov	r3, r0
 80019f8:	4618      	mov	r0, r3
 80019fa:	f7fe fd0d 	bl	8000418 <__aeabi_f2d>
 80019fe:	a30c      	add	r3, pc, #48	; (adr r3, 8001a30 <HAL_ADC_ConvCpltCallback+0x58>)
 8001a00:	e9d3 2300 	ldrd	r2, r3, [r3]
 8001a04:	f7fe fd60 	bl	80004c8 <__aeabi_dmul>
 8001a08:	4602      	mov	r2, r0
 8001a0a:	460b      	mov	r3, r1
 8001a0c:	4610      	mov	r0, r2
 8001a0e:	4619      	mov	r1, r3
 8001a10:	f7ff f80a 	bl	8000a28 <__aeabi_d2f>
 8001a14:	4603      	mov	r3, r0
 8001a16:	4619      	mov	r1, r3
 8001a18:	4809      	ldr	r0, [pc, #36]	; (8001a40 <HAL_ADC_ConvCpltCallback+0x68>)
 8001a1a:	f7ff f859 	bl	8000ad0 <__aeabi_fsub>
 8001a1e:	4603      	mov	r3, r0
 8001a20:	461a      	mov	r2, r3
 8001a22:	4b08      	ldr	r3, [pc, #32]	; (8001a44 <HAL_ADC_ConvCpltCallback+0x6c>)
 8001a24:	601a      	str	r2, [r3, #0]
}
 8001a26:	bf00      	nop
 8001a28:	3708      	adds	r7, #8
 8001a2a:	46bd      	mov	sp, r7
 8001a2c:	bd80      	pop	{r7, pc}
 8001a2e:	bf00      	nop
 8001a30:	80f12c28 	.word	0x80f12c28
 8001a34:	3fa729b2 	.word	0x3fa729b2
 8001a38:	200000d4 	.word	0x200000d4
 8001a3c:	200000b0 	.word	0x200000b0
 8001a40:	43320000 	.word	0x43320000
 8001a44:	20000114 	.word	0x20000114

08001a48 <SystemClock_Config>:
/**
 * @brief System Clock Configuration
 * @retval None
 */
void SystemClock_Config(void)
{
 8001a48:	b580      	push	{r7, lr}
 8001a4a:	b094      	sub	sp, #80	; 0x50
 8001a4c:	af00      	add	r7, sp, #0
	RCC_OscInitTypeDef RCC_OscInitStruct = {0};
 8001a4e:	f107 0328 	add.w	r3, r7, #40	; 0x28
 8001a52:	2228      	movs	r2, #40	; 0x28
 8001a54:	2100      	movs	r1, #0
 8001a56:	4618      	mov	r0, r3
 8001a58:	f002 f810 	bl	8003a7c <memset>
	RCC_ClkInitTypeDef RCC_ClkInitStruct = {0};
 8001a5c:	f107 0314 	add.w	r3, r7, #20
 8001a60:	2200      	movs	r2, #0
 8001a62:	601a      	str	r2, [r3, #0]
 8001a64:	605a      	str	r2, [r3, #4]
 8001a66:	609a      	str	r2, [r3, #8]
 8001a68:	60da      	str	r2, [r3, #12]
 8001a6a:	611a      	str	r2, [r3, #16]
	RCC_PeriphCLKInitTypeDef PeriphClkInit = {0};
 8001a6c:	1d3b      	adds	r3, r7, #4
 8001a6e:	2200      	movs	r2, #0
 8001a70:	601a      	str	r2, [r3, #0]
 8001a72:	605a      	str	r2, [r3, #4]
 8001a74:	609a      	str	r2, [r3, #8]
 8001a76:	60da      	str	r2, [r3, #12]

	/** Initializes the RCC Oscillators according to the specified parameters
	 * in the RCC_OscInitTypeDef structure.
	 */
	RCC_OscInitStruct.OscillatorType = RCC_OSCILLATORTYPE_HSI;
 8001a78:	2302      	movs	r3, #2
 8001a7a:	62bb      	str	r3, [r7, #40]	; 0x28
	RCC_OscInitStruct.HSIState = RCC_HSI_ON;
 8001a7c:	2301      	movs	r3, #1
 8001a7e:	63bb      	str	r3, [r7, #56]	; 0x38
	RCC_OscInitStruct.HSICalibrationValue = RCC_HSICALIBRATION_DEFAULT;
 8001a80:	2310      	movs	r3, #16
 8001a82:	63fb      	str	r3, [r7, #60]	; 0x3c
	RCC_OscInitStruct.PLL.PLLState = RCC_PLL_NONE;
 8001a84:	2300      	movs	r3, #0
 8001a86:	647b      	str	r3, [r7, #68]	; 0x44
	if (HAL_RCC_OscConfig(&RCC_OscInitStruct) != HAL_OK)
 8001a88:	f107 0328 	add.w	r3, r7, #40	; 0x28
 8001a8c:	4618      	mov	r0, r3
 8001a8e:	f001 fb13 	bl	80030b8 <HAL_RCC_OscConfig>
 8001a92:	4603      	mov	r3, r0
 8001a94:	2b00      	cmp	r3, #0
 8001a96:	d001      	beq.n	8001a9c <SystemClock_Config+0x54>
	{
		Error_Handler();
 8001a98:	f000 f8e0 	bl	8001c5c <Error_Handler>
	}
	/** Initializes the CPU, AHB and APB buses clocks
	 */
	RCC_ClkInitStruct.ClockType = RCC_CLOCKTYPE_HCLK|RCC_CLOCKTYPE_SYSCLK
 8001a9c:	230f      	movs	r3, #15
 8001a9e:	617b      	str	r3, [r7, #20]
			|RCC_CLOCKTYPE_PCLK1|RCC_CLOCKTYPE_PCLK2;
	RCC_ClkInitStruct.SYSCLKSource = RCC_SYSCLKSOURCE_HSI;
 8001aa0:	2300      	movs	r3, #0
 8001aa2:	61bb      	str	r3, [r7, #24]
	RCC_ClkInitStruct.AHBCLKDivider = RCC_SYSCLK_DIV1;
 8001aa4:	2300      	movs	r3, #0
 8001aa6:	61fb      	str	r3, [r7, #28]
	RCC_ClkInitStruct.APB1CLKDivider = RCC_HCLK_DIV1;
 8001aa8:	2300      	movs	r3, #0
 8001aaa:	623b      	str	r3, [r7, #32]
	RCC_ClkInitStruct.APB2CLKDivider = RCC_HCLK_DIV1;
 8001aac:	2300      	movs	r3, #0
 8001aae:	627b      	str	r3, [r7, #36]	; 0x24

	if (HAL_RCC_ClockConfig(&RCC_ClkInitStruct, FLASH_LATENCY_0) != HAL_OK)
 8001ab0:	f107 0314 	add.w	r3, r7, #20
 8001ab4:	2100      	movs	r1, #0
 8001ab6:	4618      	mov	r0, r3
 8001ab8:	f001 fd7e 	bl	80035b8 <HAL_RCC_ClockConfig>
 8001abc:	4603      	mov	r3, r0
 8001abe:	2b00      	cmp	r3, #0
 8001ac0:	d001      	beq.n	8001ac6 <SystemClock_Config+0x7e>
	{
		Error_Handler();
 8001ac2:	f000 f8cb 	bl	8001c5c <Error_Handler>
	}
	PeriphClkInit.PeriphClockSelection = RCC_PERIPHCLK_ADC;
 8001ac6:	2302      	movs	r3, #2
 8001ac8:	607b      	str	r3, [r7, #4]
	PeriphClkInit.AdcClockSelection = RCC_ADCPCLK2_DIV2;
 8001aca:	2300      	movs	r3, #0
 8001acc:	60fb      	str	r3, [r7, #12]
	if (HAL_RCCEx_PeriphCLKConfig(&PeriphClkInit) != HAL_OK)
 8001ace:	1d3b      	adds	r3, r7, #4
 8001ad0:	4618      	mov	r0, r3
 8001ad2:	f001 fed9 	bl	8003888 <HAL_RCCEx_PeriphCLKConfig>
 8001ad6:	4603      	mov	r3, r0
 8001ad8:	2b00      	cmp	r3, #0
 8001ada:	d001      	beq.n	8001ae0 <SystemClock_Config+0x98>
	{
		Error_Handler();
 8001adc:	f000 f8be 	bl	8001c5c <Error_Handler>
	}
}
 8001ae0:	bf00      	nop
 8001ae2:	3750      	adds	r7, #80	; 0x50
 8001ae4:	46bd      	mov	sp, r7
 8001ae6:	bd80      	pop	{r7, pc}

08001ae8 <MX_ADC1_Init>:
 * @brief ADC1 Initialization Function
 * @param None
 * @retval None
 */
static void MX_ADC1_Init(void)
{
 8001ae8:	b580      	push	{r7, lr}
 8001aea:	b084      	sub	sp, #16
 8001aec:	af00      	add	r7, sp, #0

	/* USER CODE BEGIN ADC1_Init 0 */

	/* USER CODE END ADC1_Init 0 */

	ADC_ChannelConfTypeDef sConfig = {0};
 8001aee:	1d3b      	adds	r3, r7, #4
 8001af0:	2200      	movs	r2, #0
 8001af2:	601a      	str	r2, [r3, #0]
 8001af4:	605a      	str	r2, [r3, #4]
 8001af6:	609a      	str	r2, [r3, #8]
	/* USER CODE BEGIN ADC1_Init 1 */

	/* USER CODE END ADC1_Init 1 */
	/** Common config
	 */
	hadc1.Instance = ADC1;
 8001af8:	4b20      	ldr	r3, [pc, #128]	; (8001b7c <MX_ADC1_Init+0x94>)
 8001afa:	4a21      	ldr	r2, [pc, #132]	; (8001b80 <MX_ADC1_Init+0x98>)
 8001afc:	601a      	str	r2, [r3, #0]
	hadc1.Init.ScanConvMode = ADC_SCAN_DISABLE;
 8001afe:	4b1f      	ldr	r3, [pc, #124]	; (8001b7c <MX_ADC1_Init+0x94>)
 8001b00:	2200      	movs	r2, #0
 8001b02:	609a      	str	r2, [r3, #8]
	hadc1.Init.ContinuousConvMode = DISABLE;
 8001b04:	4b1d      	ldr	r3, [pc, #116]	; (8001b7c <MX_ADC1_Init+0x94>)
 8001b06:	2200      	movs	r2, #0
 8001b08:	731a      	strb	r2, [r3, #12]
	hadc1.Init.DiscontinuousConvMode = DISABLE;
 8001b0a:	4b1c      	ldr	r3, [pc, #112]	; (8001b7c <MX_ADC1_Init+0x94>)
 8001b0c:	2200      	movs	r2, #0
 8001b0e:	751a      	strb	r2, [r3, #20]
	hadc1.Init.ExternalTrigConv = ADC_SOFTWARE_START;
 8001b10:	4b1a      	ldr	r3, [pc, #104]	; (8001b7c <MX_ADC1_Init+0x94>)
 8001b12:	f44f 2260 	mov.w	r2, #917504	; 0xe0000
 8001b16:	61da      	str	r2, [r3, #28]
	hadc1.Init.DataAlign = ADC_DATAALIGN_RIGHT;
 8001b18:	4b18      	ldr	r3, [pc, #96]	; (8001b7c <MX_ADC1_Init+0x94>)
 8001b1a:	2200      	movs	r2, #0
 8001b1c:	605a      	str	r2, [r3, #4]
	hadc1.Init.NbrOfConversion = 1;
 8001b1e:	4b17      	ldr	r3, [pc, #92]	; (8001b7c <MX_ADC1_Init+0x94>)
 8001b20:	2201      	movs	r2, #1
 8001b22:	611a      	str	r2, [r3, #16]
	if (HAL_ADC_Init(&hadc1) != HAL_OK)
 8001b24:	4815      	ldr	r0, [pc, #84]	; (8001b7c <MX_ADC1_Init+0x94>)
 8001b26:	f000 f9f9 	bl	8001f1c <HAL_ADC_Init>
 8001b2a:	4603      	mov	r3, r0
 8001b2c:	2b00      	cmp	r3, #0
 8001b2e:	d001      	beq.n	8001b34 <MX_ADC1_Init+0x4c>
	{
		Error_Handler();
 8001b30:	f000 f894 	bl	8001c5c <Error_Handler>
	}
	/** Configure Regular Channel
	 */
	sConfig.Channel = ADC_CHANNEL_6;
 8001b34:	2306      	movs	r3, #6
 8001b36:	607b      	str	r3, [r7, #4]
	sConfig.Rank = ADC_REGULAR_RANK_1;
 8001b38:	2301      	movs	r3, #1
 8001b3a:	60bb      	str	r3, [r7, #8]
	sConfig.SamplingTime = ADC_SAMPLETIME_1CYCLE_5;
 8001b3c:	2300      	movs	r3, #0
 8001b3e:	60fb      	str	r3, [r7, #12]
	if (HAL_ADC_ConfigChannel(&hadc1, &sConfig) != HAL_OK)
 8001b40:	1d3b      	adds	r3, r7, #4
 8001b42:	4619      	mov	r1, r3
 8001b44:	480d      	ldr	r0, [pc, #52]	; (8001b7c <MX_ADC1_Init+0x94>)
 8001b46:	f000 fc4f 	bl	80023e8 <HAL_ADC_ConfigChannel>
 8001b4a:	4603      	mov	r3, r0
 8001b4c:	2b00      	cmp	r3, #0
 8001b4e:	d001      	beq.n	8001b54 <MX_ADC1_Init+0x6c>
	{
		Error_Handler();
 8001b50:	f000 f884 	bl	8001c5c <Error_Handler>
	}
	/* USER CODE BEGIN ADC1_Init 2 */

	sConfig.Channel = ADC_CHANNEL_6;
 8001b54:	2306      	movs	r3, #6
 8001b56:	607b      	str	r3, [r7, #4]
	sConfig.Rank = ADC_REGULAR_RANK_1;
 8001b58:	2301      	movs	r3, #1
 8001b5a:	60bb      	str	r3, [r7, #8]
	sConfig.SamplingTime = ADC_SAMPLETIME_1CYCLE_5;
 8001b5c:	2300      	movs	r3, #0
 8001b5e:	60fb      	str	r3, [r7, #12]
	if (HAL_ADC_ConfigChannel(&hadc1, &sConfig) != HAL_OK)
 8001b60:	1d3b      	adds	r3, r7, #4
 8001b62:	4619      	mov	r1, r3
 8001b64:	4805      	ldr	r0, [pc, #20]	; (8001b7c <MX_ADC1_Init+0x94>)
 8001b66:	f000 fc3f 	bl	80023e8 <HAL_ADC_ConfigChannel>
 8001b6a:	4603      	mov	r3, r0
 8001b6c:	2b00      	cmp	r3, #0
 8001b6e:	d001      	beq.n	8001b74 <MX_ADC1_Init+0x8c>
	{
		Error_Handler();
 8001b70:	f000 f874 	bl	8001c5c <Error_Handler>
	}

	/* USER CODE END ADC1_Init 2 */

}
 8001b74:	bf00      	nop
 8001b76:	3710      	adds	r7, #16
 8001b78:	46bd      	mov	sp, r7
 8001b7a:	bd80      	pop	{r7, pc}
 8001b7c:	200000d4 	.word	0x200000d4
 8001b80:	40012400 	.word	0x40012400

08001b84 <MX_GPIO_Init>:
 * @brief GPIO Initialization Function
 * @param None
 * @retval None
 */
static void MX_GPIO_Init(void)
{
 8001b84:	b580      	push	{r7, lr}
 8001b86:	b088      	sub	sp, #32
 8001b88:	af00      	add	r7, sp, #0

	GPIO_InitTypeDef GPIO_InitStruct = {0};
 8001b8a:	f107 0310 	add.w	r3, r7, #16
 8001b8e:	2200      	movs	r2, #0
 8001b90:	601a      	str	r2, [r3, #0]
 8001b92:	605a      	str	r2, [r3, #4]
 8001b94:	609a      	str	r2, [r3, #8]
 8001b96:	60da      	str	r2, [r3, #12]
	/* GPIO Ports Clock Enable */
	__HAL_RCC_GPIOD_CLK_ENABLE();
 8001b98:	4b2d      	ldr	r3, [pc, #180]	; (8001c50 <MX_GPIO_Init+0xcc>)
 8001b9a:	699b      	ldr	r3, [r3, #24]
 8001b9c:	4a2c      	ldr	r2, [pc, #176]	; (8001c50 <MX_GPIO_Init+0xcc>)
 8001b9e:	f043 0320 	orr.w	r3, r3, #32
 8001ba2:	6193      	str	r3, [r2, #24]
 8001ba4:	4b2a      	ldr	r3, [pc, #168]	; (8001c50 <MX_GPIO_Init+0xcc>)
 8001ba6:	699b      	ldr	r3, [r3, #24]
 8001ba8:	f003 0320 	and.w	r3, r3, #32
 8001bac:	60fb      	str	r3, [r7, #12]
 8001bae:	68fb      	ldr	r3, [r7, #12]
	__HAL_RCC_GPIOA_CLK_ENABLE();
 8001bb0:	4b27      	ldr	r3, [pc, #156]	; (8001c50 <MX_GPIO_Init+0xcc>)
 8001bb2:	699b      	ldr	r3, [r3, #24]
 8001bb4:	4a26      	ldr	r2, [pc, #152]	; (8001c50 <MX_GPIO_Init+0xcc>)
 8001bb6:	f043 0304 	orr.w	r3, r3, #4
 8001bba:	6193      	str	r3, [r2, #24]
 8001bbc:	4b24      	ldr	r3, [pc, #144]	; (8001c50 <MX_GPIO_Init+0xcc>)
 8001bbe:	699b      	ldr	r3, [r3, #24]
 8001bc0:	f003 0304 	and.w	r3, r3, #4
 8001bc4:	60bb      	str	r3, [r7, #8]
 8001bc6:	68bb      	ldr	r3, [r7, #8]
	__HAL_RCC_GPIOB_CLK_ENABLE();
 8001bc8:	4b21      	ldr	r3, [pc, #132]	; (8001c50 <MX_GPIO_Init+0xcc>)
 8001bca:	699b      	ldr	r3, [r3, #24]
 8001bcc:	4a20      	ldr	r2, [pc, #128]	; (8001c50 <MX_GPIO_Init+0xcc>)
 8001bce:	f043 0308 	orr.w	r3, r3, #8
 8001bd2:	6193      	str	r3, [r2, #24]
 8001bd4:	4b1e      	ldr	r3, [pc, #120]	; (8001c50 <MX_GPIO_Init+0xcc>)
 8001bd6:	699b      	ldr	r3, [r3, #24]
 8001bd8:	f003 0308 	and.w	r3, r3, #8
 8001bdc:	607b      	str	r3, [r7, #4]
 8001bde:	687b      	ldr	r3, [r7, #4]

	/*Configure GPIO pin Output Level */
	HAL_GPIO_WritePin(GPIOA, D1_Pin|D2_Pin|D3_Pin|D4_Pin|GPIO_PIN_5, GPIO_PIN_RESET);
 8001be0:	2200      	movs	r2, #0
 8001be2:	212f      	movs	r1, #47	; 0x2f
 8001be4:	481b      	ldr	r0, [pc, #108]	; (8001c54 <MX_GPIO_Init+0xd0>)
 8001be6:	f001 fa4e 	bl	8003086 <HAL_GPIO_WritePin>

	/*Configure GPIO pin Output Level */
	HAL_GPIO_WritePin(GPIOB, RS_Pin|EN_Pin, GPIO_PIN_RESET);
 8001bea:	2200      	movs	r2, #0
 8001bec:	2103      	movs	r1, #3
 8001bee:	481a      	ldr	r0, [pc, #104]	; (8001c58 <MX_GPIO_Init+0xd4>)
 8001bf0:	f001 fa49 	bl	8003086 <HAL_GPIO_WritePin>

	/*Configure GPIO pins : D1_Pin D2_Pin D3_Pin D4_Pin */
	GPIO_InitStruct.Pin = D1_Pin|D2_Pin|D3_Pin|D4_Pin|GPIO_PIN_5;
 8001bf4:	232f      	movs	r3, #47	; 0x2f
 8001bf6:	613b      	str	r3, [r7, #16]
	GPIO_InitStruct.Mode = GPIO_MODE_OUTPUT_PP;
 8001bf8:	2301      	movs	r3, #1
 8001bfa:	617b      	str	r3, [r7, #20]
	GPIO_InitStruct.Pull = GPIO_NOPULL;
 8001bfc:	2300      	movs	r3, #0
 8001bfe:	61bb      	str	r3, [r7, #24]
	GPIO_InitStruct.Speed = GPIO_SPEED_FREQ_LOW;
 8001c00:	2302      	movs	r3, #2
 8001c02:	61fb      	str	r3, [r7, #28]
	HAL_GPIO_Init(GPIOA, &GPIO_InitStruct);
 8001c04:	f107 0310 	add.w	r3, r7, #16
 8001c08:	4619      	mov	r1, r3
 8001c0a:	4812      	ldr	r0, [pc, #72]	; (8001c54 <MX_GPIO_Init+0xd0>)
 8001c0c:	f001 f8a0 	bl	8002d50 <HAL_GPIO_Init>
	/*Configure GPIO pins : RS_Pin EN_Pin */
	GPIO_InitStruct.Pin = RS_Pin|EN_Pin;
 8001c10:	2303      	movs	r3, #3
 8001c12:	613b      	str	r3, [r7, #16]
	GPIO_InitStruct.Mode = GPIO_MODE_OUTPUT_PP;
 8001c14:	2301      	movs	r3, #1
 8001c16:	617b      	str	r3, [r7, #20]
	GPIO_InitStruct.Pull = GPIO_NOPULL;
 8001c18:	2300      	movs	r3, #0
 8001c1a:	61bb      	str	r3, [r7, #24]
	GPIO_InitStruct.Speed = GPIO_SPEED_FREQ_LOW;
 8001c1c:	2302      	movs	r3, #2
 8001c1e:	61fb      	str	r3, [r7, #28]
	HAL_GPIO_Init(GPIOB, &GPIO_InitStruct);
 8001c20:	f107 0310 	add.w	r3, r7, #16
 8001c24:	4619      	mov	r1, r3
 8001c26:	480c      	ldr	r0, [pc, #48]	; (8001c58 <MX_GPIO_Init+0xd4>)
 8001c28:	f001 f892 	bl	8002d50 <HAL_GPIO_Init>

	/*Configure GPIO pins : key1_Pin key2_Pin key3_Pin key4_Pin */
	GPIO_InitStruct.Pin = key1_Pin|key2_Pin|key3_Pin|key4_Pin;
 8001c2c:	f44f 7370 	mov.w	r3, #960	; 0x3c0
 8001c30:	613b      	str	r3, [r7, #16]
	GPIO_InitStruct.Mode = GPIO_MODE_INPUT;
 8001c32:	2300      	movs	r3, #0
 8001c34:	617b      	str	r3, [r7, #20]
	GPIO_InitStruct.Pull = GPIO_PULLUP;
 8001c36:	2301      	movs	r3, #1
 8001c38:	61bb      	str	r3, [r7, #24]
	HAL_GPIO_Init(GPIOA, &GPIO_InitStruct);
 8001c3a:	f107 0310 	add.w	r3, r7, #16
 8001c3e:	4619      	mov	r1, r3
 8001c40:	4804      	ldr	r0, [pc, #16]	; (8001c54 <MX_GPIO_Init+0xd0>)
 8001c42:	f001 f885 	bl	8002d50 <HAL_GPIO_Init>


}
 8001c46:	bf00      	nop
 8001c48:	3720      	adds	r7, #32
 8001c4a:	46bd      	mov	sp, r7
 8001c4c:	bd80      	pop	{r7, pc}
 8001c4e:	bf00      	nop
 8001c50:	40021000 	.word	0x40021000
 8001c54:	40010800 	.word	0x40010800
 8001c58:	40010c00 	.word	0x40010c00

08001c5c <Error_Handler>:
/**
 * @brief  This function is executed in case of error occurrence.
 * @retval None
 */
void Error_Handler(void)
{
 8001c5c:	b480      	push	{r7}
 8001c5e:	af00      	add	r7, sp, #0
  \details Disables IRQ interrupts by setting the I-bit in the CPSR.
           Can only be executed in Privileged modes.
 */
__STATIC_FORCEINLINE void __disable_irq(void)
{
  __ASM volatile ("cpsid i" : : : "memory");
 8001c60:	b672      	cpsid	i
}
 8001c62:	bf00      	nop
	/* USER CODE BEGIN Error_Handler_Debug */
	/* User can add his own implementation to report the HAL error return state */
	__disable_irq();
	while (1)
 8001c64:	e7fe      	b.n	8001c64 <Error_Handler+0x8>
	...

08001c68 <HAL_MspInit>:
 8001c68:	b480      	push	{r7}
 8001c6a:	b085      	sub	sp, #20
 8001c6c:	af00      	add	r7, sp, #0
 8001c6e:	4b15      	ldr	r3, [pc, #84]	; (8001cc4 <HAL_MspInit+0x5c>)
 8001c70:	699b      	ldr	r3, [r3, #24]
 8001c72:	4a14      	ldr	r2, [pc, #80]	; (8001cc4 <HAL_MspInit+0x5c>)
 8001c74:	f043 0301 	orr.w	r3, r3, #1
 8001c78:	6193      	str	r3, [r2, #24]
 8001c7a:	4b12      	ldr	r3, [pc, #72]	; (8001cc4 <HAL_MspInit+0x5c>)
 8001c7c:	699b      	ldr	r3, [r3, #24]
 8001c7e:	f003 0301 	and.w	r3, r3, #1
 8001c82:	60bb      	str	r3, [r7, #8]
 8001c84:	68bb      	ldr	r3, [r7, #8]
 8001c86:	4b0f      	ldr	r3, [pc, #60]	; (8001cc4 <HAL_MspInit+0x5c>)
 8001c88:	69db      	ldr	r3, [r3, #28]
 8001c8a:	4a0e      	ldr	r2, [pc, #56]	; (8001cc4 <HAL_MspInit+0x5c>)
 8001c8c:	f043 5380 	orr.w	r3, r3, #268435456	; 0x10000000
 8001c90:	61d3      	str	r3, [r2, #28]
 8001c92:	4b0c      	ldr	r3, [pc, #48]	; (8001cc4 <HAL_MspInit+0x5c>)
 8001c94:	69db      	ldr	r3, [r3, #28]
 8001c96:	f003 5380 	and.w	r3, r3, #268435456	; 0x10000000
 8001c9a:	607b      	str	r3, [r7, #4]
 8001c9c:	687b      	ldr	r3, [r7, #4]
 8001c9e:	4b0a      	ldr	r3, [pc, #40]	; (8001cc8 <HAL_MspInit+0x60>)
 8001ca0:	685b      	ldr	r3, [r3, #4]
 8001ca2:	60fb      	str	r3, [r7, #12]
 8001ca4:	68fb      	ldr	r3, [r7, #12]
 8001ca6:	f023 63e0 	bic.w	r3, r3, #117440512	; 0x7000000
 8001caa:	60fb      	str	r3, [r7, #12]
 8001cac:	68fb      	ldr	r3, [r7, #12]
 8001cae:	f043 6380 	orr.w	r3, r3, #67108864	; 0x4000000
 8001cb2:	60fb      	str	r3, [r7, #12]
 8001cb4:	4a04      	ldr	r2, [pc, #16]	; (8001cc8 <HAL_MspInit+0x60>)
 8001cb6:	68fb      	ldr	r3, [r7, #12]
 8001cb8:	6053      	str	r3, [r2, #4]
 8001cba:	bf00      	nop
 8001cbc:	3714      	adds	r7, #20
 8001cbe:	46bd      	mov	sp, r7
 8001cc0:	bc80      	pop	{r7}
 8001cc2:	4770      	bx	lr
 8001cc4:	40021000 	.word	0x40021000
 8001cc8:	40010000 	.word	0x40010000

08001ccc <HAL_ADC_MspInit>:
 8001ccc:	b580      	push	{r7, lr}
 8001cce:	b088      	sub	sp, #32
 8001cd0:	af00      	add	r7, sp, #0
 8001cd2:	6078      	str	r0, [r7, #4]
 8001cd4:	f107 0310 	add.w	r3, r7, #16
 8001cd8:	2200      	movs	r2, #0
 8001cda:	601a      	str	r2, [r3, #0]
 8001cdc:	605a      	str	r2, [r3, #4]
 8001cde:	609a      	str	r2, [r3, #8]
 8001ce0:	60da      	str	r2, [r3, #12]
 8001ce2:	687b      	ldr	r3, [r7, #4]
 8001ce4:	681b      	ldr	r3, [r3, #0]
 8001ce6:	4a18      	ldr	r2, [pc, #96]	; (8001d48 <HAL_ADC_MspInit+0x7c>)
 8001ce8:	4293      	cmp	r3, r2
 8001cea:	d129      	bne.n	8001d40 <HAL_ADC_MspInit+0x74>
 8001cec:	4b17      	ldr	r3, [pc, #92]	; (8001d4c <HAL_ADC_MspInit+0x80>)
 8001cee:	699b      	ldr	r3, [r3, #24]
 8001cf0:	4a16      	ldr	r2, [pc, #88]	; (8001d4c <HAL_ADC_MspInit+0x80>)
 8001cf2:	f443 7300 	orr.w	r3, r3, #512	; 0x200
 8001cf6:	6193      	str	r3, [r2, #24]
 8001cf8:	4b14      	ldr	r3, [pc, #80]	; (8001d4c <HAL_ADC_MspInit+0x80>)
 8001cfa:	699b      	ldr	r3, [r3, #24]
 8001cfc:	f403 7300 	and.w	r3, r3, #512	; 0x200
 8001d00:	60fb      	str	r3, [r7, #12]
 8001d02:	68fb      	ldr	r3, [r7, #12]
 8001d04:	4b11      	ldr	r3, [pc, #68]	; (8001d4c <HAL_ADC_MspInit+0x80>)
 8001d06:	699b      	ldr	r3, [r3, #24]
 8001d08:	4a10      	ldr	r2, [pc, #64]	; (8001d4c <HAL_ADC_MspInit+0x80>)
 8001d0a:	f043 0304 	orr.w	r3, r3, #4
 8001d0e:	6193      	str	r3, [r2, #24]
 8001d10:	4b0e      	ldr	r3, [pc, #56]	; (8001d4c <HAL_ADC_MspInit+0x80>)
 8001d12:	699b      	ldr	r3, [r3, #24]
 8001d14:	f003 0304 	and.w	r3, r3, #4
 8001d18:	60bb      	str	r3, [r7, #8]
 8001d1a:	68bb      	ldr	r3, [r7, #8]
 8001d1c:	2340      	movs	r3, #64	; 0x40
 8001d1e:	613b      	str	r3, [r7, #16]
 8001d20:	2303      	movs	r3, #3
 8001d22:	617b      	str	r3, [r7, #20]
 8001d24:	f107 0310 	add.w	r3, r7, #16
 8001d28:	4619      	mov	r1, r3
 8001d2a:	4809      	ldr	r0, [pc, #36]	; (8001d50 <HAL_ADC_MspInit+0x84>)
 8001d2c:	f001 f810 	bl	8002d50 <HAL_GPIO_Init>
 8001d30:	2200      	movs	r2, #0
 8001d32:	2100      	movs	r1, #0
 8001d34:	2012      	movs	r0, #18
 8001d36:	f000 fdca 	bl	80028ce <HAL_NVIC_SetPriority>
 8001d3a:	2012      	movs	r0, #18
 8001d3c:	f000 fde3 	bl	8002906 <HAL_NVIC_EnableIRQ>
 8001d40:	bf00      	nop
 8001d42:	3720      	adds	r7, #32
 8001d44:	46bd      	mov	sp, r7
 8001d46:	bd80      	pop	{r7, pc}
 8001d48:	40012400 	.word	0x40012400
 8001d4c:	40021000 	.word	0x40021000
 8001d50:	40010800 	.word	0x40010800

08001d54 <NMI_Handler>:
 8001d54:	b480      	push	{r7}
 8001d56:	af00      	add	r7, sp, #0
 8001d58:	e7fe      	b.n	8001d58 <NMI_Handler+0x4>

08001d5a <HardFault_Handler>:
 8001d5a:	b480      	push	{r7}
 8001d5c:	af00      	add	r7, sp, #0
 8001d5e:	e7fe      	b.n	8001d5e <HardFault_Handler+0x4>

08001d60 <MemManage_Handler>:
 8001d60:	b480      	push	{r7}
 8001d62:	af00      	add	r7, sp, #0
 8001d64:	e7fe      	b.n	8001d64 <MemManage_Handler+0x4>

08001d66 <BusFault_Handler>:
 8001d66:	b480      	push	{r7}
 8001d68:	af00      	add	r7, sp, #0
 8001d6a:	e7fe      	b.n	8001d6a <BusFault_Handler+0x4>

08001d6c <UsageFault_Handler>:
 8001d6c:	b480      	push	{r7}
 8001d6e:	af00      	add	r7, sp, #0
 8001d70:	e7fe      	b.n	8001d70 <UsageFault_Handler+0x4>

08001d72 <SVC_Handler>:
 8001d72:	b480      	push	{r7}
 8001d74:	af00      	add	r7, sp, #0
 8001d76:	bf00      	nop
 8001d78:	46bd      	mov	sp, r7
 8001d7a:	bc80      	pop	{r7}
 8001d7c:	4770      	bx	lr

08001d7e <DebugMon_Handler>:
 8001d7e:	b480      	push	{r7}
 8001d80:	af00      	add	r7, sp, #0
 8001d82:	bf00      	nop
 8001d84:	46bd      	mov	sp, r7
 8001d86:	bc80      	pop	{r7}
 8001d88:	4770      	bx	lr

08001d8a <PendSV_Handler>:
 8001d8a:	b480      	push	{r7}
 8001d8c:	af00      	add	r7, sp, #0
 8001d8e:	bf00      	nop
 8001d90:	46bd      	mov	sp, r7
 8001d92:	bc80      	pop	{r7}
 8001d94:	4770      	bx	lr

08001d96 <SysTick_Handler>:
 8001d96:	b580      	push	{r7, lr}
 8001d98:	af00      	add	r7, sp, #0
 8001d9a:	f000 f87f 	bl	8001e9c <HAL_IncTick>
 8001d9e:	bf00      	nop
 8001da0:	bd80      	pop	{r7, pc}
	...

08001da4 <ADC1_2_IRQHandler>:
 8001da4:	b580      	push	{r7, lr}
 8001da6:	af00      	add	r7, sp, #0
 8001da8:	4802      	ldr	r0, [pc, #8]	; (8001db4 <ADC1_2_IRQHandler+0x10>)
 8001daa:	f000 fa51 	bl	8002250 <HAL_ADC_IRQHandler>
 8001dae:	bf00      	nop
 8001db0:	bd80      	pop	{r7, pc}
 8001db2:	bf00      	nop
 8001db4:	200000d4 	.word	0x200000d4

08001db8 <SystemInit>:
 8001db8:	b480      	push	{r7}
 8001dba:	af00      	add	r7, sp, #0
 8001dbc:	bf00      	nop
 8001dbe:	46bd      	mov	sp, r7
 8001dc0:	bc80      	pop	{r7}
 8001dc2:	4770      	bx	lr

08001dc4 <Reset_Handler>:
 8001dc4:	480c      	ldr	r0, [pc, #48]	; (8001df8 <LoopFillZerobss+0x12>)
 8001dc6:	490d      	ldr	r1, [pc, #52]	; (8001dfc <LoopFillZerobss+0x16>)
 8001dc8:	4a0d      	ldr	r2, [pc, #52]	; (8001e00 <LoopFillZerobss+0x1a>)
 8001dca:	2300      	movs	r3, #0
 8001dcc:	e002      	b.n	8001dd4 <LoopCopyDataInit>

08001dce <CopyDataInit>:
 8001dce:	58d4      	ldr	r4, [r2, r3]
 8001dd0:	50c4      	str	r4, [r0, r3]
 8001dd2:	3304      	adds	r3, #4

08001dd4 <LoopCopyDataInit>:
 8001dd4:	18c4      	adds	r4, r0, r3
 8001dd6:	428c      	cmp	r4, r1
 8001dd8:	d3f9      	bcc.n	8001dce <CopyDataInit>
 8001dda:	4a0a      	ldr	r2, [pc, #40]	; (8001e04 <LoopFillZerobss+0x1e>)
 8001ddc:	4c0a      	ldr	r4, [pc, #40]	; (8001e08 <LoopFillZerobss+0x22>)
 8001dde:	2300      	movs	r3, #0
 8001de0:	e001      	b.n	8001de6 <LoopFillZerobss>

08001de2 <FillZerobss>:
 8001de2:	6013      	str	r3, [r2, #0]
 8001de4:	3204      	adds	r2, #4

08001de6 <LoopFillZerobss>:
 8001de6:	42a2      	cmp	r2, r4
 8001de8:	d3fb      	bcc.n	8001de2 <FillZerobss>
 8001dea:	f7ff ffe5 	bl	8001db8 <SystemInit>
 8001dee:	f001 fe07 	bl	8003a00 <__libc_init_array>
 8001df2:	f7ff fcd3 	bl	800179c <main>
 8001df6:	4770      	bx	lr
 8001df8:	20000000 	.word	0x20000000
 8001dfc:	20000074 	.word	0x20000074
 8001e00:	08004b18 	.word	0x08004b18
 8001e04:	20000078 	.word	0x20000078
 8001e08:	20000178 	.word	0x20000178

08001e0c <CAN1_RX1_IRQHandler>:
 8001e0c:	e7fe      	b.n	8001e0c <CAN1_RX1_IRQHandler>
	...

08001e10 <HAL_Init>:
 8001e10:	b580      	push	{r7, lr}
 8001e12:	af00      	add	r7, sp, #0
 8001e14:	4b08      	ldr	r3, [pc, #32]	; (8001e38 <HAL_Init+0x28>)
 8001e16:	681b      	ldr	r3, [r3, #0]
 8001e18:	4a07      	ldr	r2, [pc, #28]	; (8001e38 <HAL_Init+0x28>)
 8001e1a:	f043 0310 	orr.w	r3, r3, #16
 8001e1e:	6013      	str	r3, [r2, #0]
 8001e20:	2003      	movs	r0, #3
 8001e22:	f000 fd49 	bl	80028b8 <HAL_NVIC_SetPriorityGrouping>
 8001e26:	200f      	movs	r0, #15
 8001e28:	f000 f808 	bl	8001e3c <HAL_InitTick>
 8001e2c:	f7ff ff1c 	bl	8001c68 <HAL_MspInit>
 8001e30:	2300      	movs	r3, #0
 8001e32:	4618      	mov	r0, r3
 8001e34:	bd80      	pop	{r7, pc}
 8001e36:	bf00      	nop
 8001e38:	40022000 	.word	0x40022000

08001e3c <HAL_InitTick>:
 8001e3c:	b580      	push	{r7, lr}
 8001e3e:	b082      	sub	sp, #8
 8001e40:	af00      	add	r7, sp, #0
 8001e42:	6078      	str	r0, [r7, #4]
 8001e44:	4b12      	ldr	r3, [pc, #72]	; (8001e90 <HAL_InitTick+0x54>)
 8001e46:	681a      	ldr	r2, [r3, #0]
 8001e48:	4b12      	ldr	r3, [pc, #72]	; (8001e94 <HAL_InitTick+0x58>)
 8001e4a:	781b      	ldrb	r3, [r3, #0]
 8001e4c:	4619      	mov	r1, r3
 8001e4e:	f44f 737a 	mov.w	r3, #1000	; 0x3e8
 8001e52:	fbb3 f3f1 	udiv	r3, r3, r1
 8001e56:	fbb2 f3f3 	udiv	r3, r2, r3
 8001e5a:	4618      	mov	r0, r3
 8001e5c:	f000 fd61 	bl	8002922 <HAL_SYSTICK_Config>
 8001e60:	4603      	mov	r3, r0
 8001e62:	2b00      	cmp	r3, #0
 8001e64:	d001      	beq.n	8001e6a <HAL_InitTick+0x2e>
 8001e66:	2301      	movs	r3, #1
 8001e68:	e00e      	b.n	8001e88 <HAL_InitTick+0x4c>
 8001e6a:	687b      	ldr	r3, [r7, #4]
 8001e6c:	2b0f      	cmp	r3, #15
 8001e6e:	d80a      	bhi.n	8001e86 <HAL_InitTick+0x4a>
 8001e70:	2200      	movs	r2, #0
 8001e72:	6879      	ldr	r1, [r7, #4]
 8001e74:	f04f 30ff 	mov.w	r0, #4294967295
 8001e78:	f000 fd29 	bl	80028ce <HAL_NVIC_SetPriority>
 8001e7c:	4a06      	ldr	r2, [pc, #24]	; (8001e98 <HAL_InitTick+0x5c>)
 8001e7e:	687b      	ldr	r3, [r7, #4]
 8001e80:	6013      	str	r3, [r2, #0]
 8001e82:	2300      	movs	r3, #0
 8001e84:	e000      	b.n	8001e88 <HAL_InitTick+0x4c>
 8001e86:	2301      	movs	r3, #1
 8001e88:	4618      	mov	r0, r3
 8001e8a:	3708      	adds	r7, #8
 8001e8c:	46bd      	mov	sp, r7
 8001e8e:	bd80      	pop	{r7, pc}
 8001e90:	20000000 	.word	0x20000000
 8001e94:	20000008 	.word	0x20000008
 8001e98:	20000004 	.word	0x20000004

08001e9c <HAL_IncTick>:
 8001e9c:	b480      	push	{r7}
 8001e9e:	af00      	add	r7, sp, #0
 8001ea0:	4b05      	ldr	r3, [pc, #20]	; (8001eb8 <HAL_IncTick+0x1c>)
 8001ea2:	781b      	ldrb	r3, [r3, #0]
 8001ea4:	461a      	mov	r2, r3
 8001ea6:	4b05      	ldr	r3, [pc, #20]	; (8001ebc <HAL_IncTick+0x20>)
 8001ea8:	681b      	ldr	r3, [r3, #0]
 8001eaa:	4413      	add	r3, r2
 8001eac:	4a03      	ldr	r2, [pc, #12]	; (8001ebc <HAL_IncTick+0x20>)
 8001eae:	6013      	str	r3, [r2, #0]
 8001eb0:	bf00      	nop
 8001eb2:	46bd      	mov	sp, r7
 8001eb4:	bc80      	pop	{r7}
 8001eb6:	4770      	bx	lr
 8001eb8:	20000008 	.word	0x20000008
 8001ebc:	20000154 	.word	0x20000154

08001ec0 <HAL_GetTick>:
 8001ec0:	b480      	push	{r7}
 8001ec2:	af00      	add	r7, sp, #0
 8001ec4:	4b02      	ldr	r3, [pc, #8]	; (8001ed0 <HAL_GetTick+0x10>)
 8001ec6:	681b      	ldr	r3, [r3, #0]
 8001ec8:	4618      	mov	r0, r3
 8001eca:	46bd      	mov	sp, r7
 8001ecc:	bc80      	pop	{r7}
 8001ece:	4770      	bx	lr
 8001ed0:	20000154 	.word	0x20000154

08001ed4 <HAL_Delay>:
 8001ed4:	b580      	push	{r7, lr}
 8001ed6:	b084      	sub	sp, #16
 8001ed8:	af00      	add	r7, sp, #0
 8001eda:	6078      	str	r0, [r7, #4]
 8001edc:	f7ff fff0 	bl	8001ec0 <HAL_GetTick>
 8001ee0:	60b8      	str	r0, [r7, #8]
 8001ee2:	687b      	ldr	r3, [r7, #4]
 8001ee4:	60fb      	str	r3, [r7, #12]
 8001ee6:	68fb      	ldr	r3, [r7, #12]
 8001ee8:	f1b3 3fff 	cmp.w	r3, #4294967295
 8001eec:	d005      	beq.n	8001efa <HAL_Delay+0x26>
 8001eee:	4b0a      	ldr	r3, [pc, #40]	; (8001f18 <HAL_Delay+0x44>)
 8001ef0:	781b      	ldrb	r3, [r3, #0]
 8001ef2:	461a      	mov	r2, r3
 8001ef4:	68fb      	ldr	r3, [r7, #12]
 8001ef6:	4413      	add	r3, r2
 8001ef8:	60fb      	str	r3, [r7, #12]
 8001efa:	bf00      	nop
 8001efc:	f7ff ffe0 	bl	8001ec0 <HAL_GetTick>
 8001f00:	4602      	mov	r2, r0
 8001f02:	68bb      	ldr	r3, [r7, #8]
 8001f04:	1ad3      	subs	r3, r2, r3
 8001f06:	68fa      	ldr	r2, [r7, #12]
 8001f08:	429a      	cmp	r2, r3
 8001f0a:	d8f7      	bhi.n	8001efc <HAL_Delay+0x28>
 8001f0c:	bf00      	nop
 8001f0e:	bf00      	nop
 8001f10:	3710      	adds	r7, #16
 8001f12:	46bd      	mov	sp, r7
 8001f14:	bd80      	pop	{r7, pc}
 8001f16:	bf00      	nop
 8001f18:	20000008 	.word	0x20000008

08001f1c <HAL_ADC_Init>:
 8001f1c:	b580      	push	{r7, lr}
 8001f1e:	b086      	sub	sp, #24
 8001f20:	af00      	add	r7, sp, #0
 8001f22:	6078      	str	r0, [r7, #4]
 8001f24:	2300      	movs	r3, #0
 8001f26:	75fb      	strb	r3, [r7, #23]
 8001f28:	2300      	movs	r3, #0
 8001f2a:	613b      	str	r3, [r7, #16]
 8001f2c:	2300      	movs	r3, #0
 8001f2e:	60bb      	str	r3, [r7, #8]
 8001f30:	2300      	movs	r3, #0
 8001f32:	60fb      	str	r3, [r7, #12]
 8001f34:	687b      	ldr	r3, [r7, #4]
 8001f36:	2b00      	cmp	r3, #0
 8001f38:	d101      	bne.n	8001f3e <HAL_ADC_Init+0x22>
 8001f3a:	2301      	movs	r3, #1
 8001f3c:	e0be      	b.n	80020bc <HAL_ADC_Init+0x1a0>
 8001f3e:	687b      	ldr	r3, [r7, #4]
 8001f40:	689b      	ldr	r3, [r3, #8]
 8001f42:	2b00      	cmp	r3, #0
 8001f44:	687b      	ldr	r3, [r7, #4]
 8001f46:	6a9b      	ldr	r3, [r3, #40]	; 0x28
 8001f48:	2b00      	cmp	r3, #0
 8001f4a:	d109      	bne.n	8001f60 <HAL_ADC_Init+0x44>
 8001f4c:	687b      	ldr	r3, [r7, #4]
 8001f4e:	2200      	movs	r2, #0
 8001f50:	62da      	str	r2, [r3, #44]	; 0x2c
 8001f52:	687b      	ldr	r3, [r7, #4]
 8001f54:	2200      	movs	r2, #0
 8001f56:	f883 2024 	strb.w	r2, [r3, #36]	; 0x24
 8001f5a:	6878      	ldr	r0, [r7, #4]
 8001f5c:	f7ff feb6 	bl	8001ccc <HAL_ADC_MspInit>
 8001f60:	6878      	ldr	r0, [r7, #4]
 8001f62:	f000 fb93 	bl	800268c <ADC_ConversionStop_Disable>
 8001f66:	4603      	mov	r3, r0
 8001f68:	75fb      	strb	r3, [r7, #23]
 8001f6a:	687b      	ldr	r3, [r7, #4]
 8001f6c:	6a9b      	ldr	r3, [r3, #40]	; 0x28
 8001f6e:	f003 0310 	and.w	r3, r3, #16
 8001f72:	2b00      	cmp	r3, #0
 8001f74:	f040 8099 	bne.w	80020aa <HAL_ADC_Init+0x18e>
 8001f78:	7dfb      	ldrb	r3, [r7, #23]
 8001f7a:	2b00      	cmp	r3, #0
 8001f7c:	f040 8095 	bne.w	80020aa <HAL_ADC_Init+0x18e>
 8001f80:	687b      	ldr	r3, [r7, #4]
 8001f82:	6a9b      	ldr	r3, [r3, #40]	; 0x28
 8001f84:	f423 5388 	bic.w	r3, r3, #4352	; 0x1100
 8001f88:	f023 0302 	bic.w	r3, r3, #2
 8001f8c:	f043 0202 	orr.w	r2, r3, #2
 8001f90:	687b      	ldr	r3, [r7, #4]
 8001f92:	629a      	str	r2, [r3, #40]	; 0x28
 8001f94:	687b      	ldr	r3, [r7, #4]
 8001f96:	685a      	ldr	r2, [r3, #4]
 8001f98:	687b      	ldr	r3, [r7, #4]
 8001f9a:	69db      	ldr	r3, [r3, #28]
 8001f9c:	431a      	orrs	r2, r3
 8001f9e:	687b      	ldr	r3, [r7, #4]
 8001fa0:	7b1b      	ldrb	r3, [r3, #12]
 8001fa2:	005b      	lsls	r3, r3, #1
 8001fa4:	4313      	orrs	r3, r2
 8001fa6:	68ba      	ldr	r2, [r7, #8]
 8001fa8:	4313      	orrs	r3, r2
 8001faa:	60bb      	str	r3, [r7, #8]
 8001fac:	687b      	ldr	r3, [r7, #4]
 8001fae:	689b      	ldr	r3, [r3, #8]
 8001fb0:	f5b3 7f80 	cmp.w	r3, #256	; 0x100
 8001fb4:	d003      	beq.n	8001fbe <HAL_ADC_Init+0xa2>
 8001fb6:	687b      	ldr	r3, [r7, #4]
 8001fb8:	689b      	ldr	r3, [r3, #8]
 8001fba:	2b01      	cmp	r3, #1
 8001fbc:	d102      	bne.n	8001fc4 <HAL_ADC_Init+0xa8>
 8001fbe:	f44f 7380 	mov.w	r3, #256	; 0x100
 8001fc2:	e000      	b.n	8001fc6 <HAL_ADC_Init+0xaa>
 8001fc4:	2300      	movs	r3, #0
 8001fc6:	693a      	ldr	r2, [r7, #16]
 8001fc8:	4313      	orrs	r3, r2
 8001fca:	613b      	str	r3, [r7, #16]
 8001fcc:	687b      	ldr	r3, [r7, #4]
 8001fce:	7d1b      	ldrb	r3, [r3, #20]
 8001fd0:	2b01      	cmp	r3, #1
 8001fd2:	d119      	bne.n	8002008 <HAL_ADC_Init+0xec>
 8001fd4:	687b      	ldr	r3, [r7, #4]
 8001fd6:	7b1b      	ldrb	r3, [r3, #12]
 8001fd8:	2b00      	cmp	r3, #0
 8001fda:	d109      	bne.n	8001ff0 <HAL_ADC_Init+0xd4>
 8001fdc:	687b      	ldr	r3, [r7, #4]
 8001fde:	699b      	ldr	r3, [r3, #24]
 8001fe0:	3b01      	subs	r3, #1
 8001fe2:	035a      	lsls	r2, r3, #13
 8001fe4:	693b      	ldr	r3, [r7, #16]
 8001fe6:	4313      	orrs	r3, r2
 8001fe8:	f443 6300 	orr.w	r3, r3, #2048	; 0x800
 8001fec:	613b      	str	r3, [r7, #16]
 8001fee:	e00b      	b.n	8002008 <HAL_ADC_Init+0xec>
 8001ff0:	687b      	ldr	r3, [r7, #4]
 8001ff2:	6a9b      	ldr	r3, [r3, #40]	; 0x28
 8001ff4:	f043 0220 	orr.w	r2, r3, #32
 8001ff8:	687b      	ldr	r3, [r7, #4]
 8001ffa:	629a      	str	r2, [r3, #40]	; 0x28
 8001ffc:	687b      	ldr	r3, [r7, #4]
 8001ffe:	6adb      	ldr	r3, [r3, #44]	; 0x2c
 8002000:	f043 0201 	orr.w	r2, r3, #1
 8002004:	687b      	ldr	r3, [r7, #4]
 8002006:	62da      	str	r2, [r3, #44]	; 0x2c
 8002008:	687b      	ldr	r3, [r7, #4]
 800200a:	681b      	ldr	r3, [r3, #0]
 800200c:	685b      	ldr	r3, [r3, #4]
 800200e:	f423 4169 	bic.w	r1, r3, #59648	; 0xe900
 8002012:	687b      	ldr	r3, [r7, #4]
 8002014:	681b      	ldr	r3, [r3, #0]
 8002016:	693a      	ldr	r2, [r7, #16]
 8002018:	430a      	orrs	r2, r1
 800201a:	605a      	str	r2, [r3, #4]
 800201c:	687b      	ldr	r3, [r7, #4]
 800201e:	681b      	ldr	r3, [r3, #0]
 8002020:	689a      	ldr	r2, [r3, #8]
 8002022:	4b28      	ldr	r3, [pc, #160]	; (80020c4 <HAL_ADC_Init+0x1a8>)
 8002024:	4013      	ands	r3, r2
 8002026:	687a      	ldr	r2, [r7, #4]
 8002028:	6812      	ldr	r2, [r2, #0]
 800202a:	68b9      	ldr	r1, [r7, #8]
 800202c:	430b      	orrs	r3, r1
 800202e:	6093      	str	r3, [r2, #8]
 8002030:	687b      	ldr	r3, [r7, #4]
 8002032:	689b      	ldr	r3, [r3, #8]
 8002034:	f5b3 7f80 	cmp.w	r3, #256	; 0x100
 8002038:	d003      	beq.n	8002042 <HAL_ADC_Init+0x126>
 800203a:	687b      	ldr	r3, [r7, #4]
 800203c:	689b      	ldr	r3, [r3, #8]
 800203e:	2b01      	cmp	r3, #1
 8002040:	d104      	bne.n	800204c <HAL_ADC_Init+0x130>
 8002042:	687b      	ldr	r3, [r7, #4]
 8002044:	691b      	ldr	r3, [r3, #16]
 8002046:	3b01      	subs	r3, #1
 8002048:	051b      	lsls	r3, r3, #20
 800204a:	60fb      	str	r3, [r7, #12]
 800204c:	687b      	ldr	r3, [r7, #4]
 800204e:	681b      	ldr	r3, [r3, #0]
 8002050:	6adb      	ldr	r3, [r3, #44]	; 0x2c
 8002052:	f423 0170 	bic.w	r1, r3, #15728640	; 0xf00000
 8002056:	687b      	ldr	r3, [r7, #4]
 8002058:	681b      	ldr	r3, [r3, #0]
 800205a:	68fa      	ldr	r2, [r7, #12]
 800205c:	430a      	orrs	r2, r1
 800205e:	62da      	str	r2, [r3, #44]	; 0x2c
 8002060:	687b      	ldr	r3, [r7, #4]
 8002062:	681b      	ldr	r3, [r3, #0]
 8002064:	689a      	ldr	r2, [r3, #8]
 8002066:	4b18      	ldr	r3, [pc, #96]	; (80020c8 <HAL_ADC_Init+0x1ac>)
 8002068:	4013      	ands	r3, r2
 800206a:	68ba      	ldr	r2, [r7, #8]
 800206c:	429a      	cmp	r2, r3
 800206e:	d10b      	bne.n	8002088 <HAL_ADC_Init+0x16c>
 8002070:	687b      	ldr	r3, [r7, #4]
 8002072:	2200      	movs	r2, #0
 8002074:	62da      	str	r2, [r3, #44]	; 0x2c
 8002076:	687b      	ldr	r3, [r7, #4]
 8002078:	6a9b      	ldr	r3, [r3, #40]	; 0x28
 800207a:	f023 0303 	bic.w	r3, r3, #3
 800207e:	f043 0201 	orr.w	r2, r3, #1
 8002082:	687b      	ldr	r3, [r7, #4]
 8002084:	629a      	str	r2, [r3, #40]	; 0x28
 8002086:	e018      	b.n	80020ba <HAL_ADC_Init+0x19e>
 8002088:	687b      	ldr	r3, [r7, #4]
 800208a:	6a9b      	ldr	r3, [r3, #40]	; 0x28
 800208c:	f023 0312 	bic.w	r3, r3, #18
 8002090:	f043 0210 	orr.w	r2, r3, #16
 8002094:	687b      	ldr	r3, [r7, #4]
 8002096:	629a      	str	r2, [r3, #40]	; 0x28
 8002098:	687b      	ldr	r3, [r7, #4]
 800209a:	6adb      	ldr	r3, [r3, #44]	; 0x2c
 800209c:	f043 0201 	orr.w	r2, r3, #1
 80020a0:	687b      	ldr	r3, [r7, #4]
 80020a2:	62da      	str	r2, [r3, #44]	; 0x2c
 80020a4:	2301      	movs	r3, #1
 80020a6:	75fb      	strb	r3, [r7, #23]
 80020a8:	e007      	b.n	80020ba <HAL_ADC_Init+0x19e>
 80020aa:	687b      	ldr	r3, [r7, #4]
 80020ac:	6a9b      	ldr	r3, [r3, #40]	; 0x28
 80020ae:	f043 0210 	orr.w	r2, r3, #16
 80020b2:	687b      	ldr	r3, [r7, #4]
 80020b4:	629a      	str	r2, [r3, #40]	; 0x28
 80020b6:	2301      	movs	r3, #1
 80020b8:	75fb      	strb	r3, [r7, #23]
 80020ba:	7dfb      	ldrb	r3, [r7, #23]
 80020bc:	4618      	mov	r0, r3
 80020be:	3718      	adds	r7, #24
 80020c0:	46bd      	mov	sp, r7
 80020c2:	bd80      	pop	{r7, pc}
 80020c4:	ffe1f7fd 	.word	0xffe1f7fd
 80020c8:	ff1f0efe 	.word	0xff1f0efe

080020cc <HAL_ADC_Start_IT>:
 80020cc:	b580      	push	{r7, lr}
 80020ce:	b084      	sub	sp, #16
 80020d0:	af00      	add	r7, sp, #0
 80020d2:	6078      	str	r0, [r7, #4]
 80020d4:	2300      	movs	r3, #0
 80020d6:	73fb      	strb	r3, [r7, #15]
 80020d8:	687b      	ldr	r3, [r7, #4]
 80020da:	f893 3024 	ldrb.w	r3, [r3, #36]	; 0x24
 80020de:	2b01      	cmp	r3, #1
 80020e0:	d101      	bne.n	80020e6 <HAL_ADC_Start_IT+0x1a>
 80020e2:	2302      	movs	r3, #2
 80020e4:	e0a0      	b.n	8002228 <HAL_ADC_Start_IT+0x15c>
 80020e6:	687b      	ldr	r3, [r7, #4]
 80020e8:	2201      	movs	r2, #1
 80020ea:	f883 2024 	strb.w	r2, [r3, #36]	; 0x24
 80020ee:	6878      	ldr	r0, [r7, #4]
 80020f0:	f000 fa72 	bl	80025d8 <ADC_Enable>
 80020f4:	4603      	mov	r3, r0
 80020f6:	73fb      	strb	r3, [r7, #15]
 80020f8:	7bfb      	ldrb	r3, [r7, #15]
 80020fa:	2b00      	cmp	r3, #0
 80020fc:	f040 808f 	bne.w	800221e <HAL_ADC_Start_IT+0x152>
 8002100:	687b      	ldr	r3, [r7, #4]
 8002102:	6a9b      	ldr	r3, [r3, #40]	; 0x28
 8002104:	f423 6370 	bic.w	r3, r3, #3840	; 0xf00
 8002108:	f023 0301 	bic.w	r3, r3, #1
 800210c:	f443 7280 	orr.w	r2, r3, #256	; 0x100
 8002110:	687b      	ldr	r3, [r7, #4]
 8002112:	629a      	str	r2, [r3, #40]	; 0x28
 8002114:	687b      	ldr	r3, [r7, #4]
 8002116:	681b      	ldr	r3, [r3, #0]
 8002118:	4a45      	ldr	r2, [pc, #276]	; (8002230 <HAL_ADC_Start_IT+0x164>)
 800211a:	4293      	cmp	r3, r2
 800211c:	d105      	bne.n	800212a <HAL_ADC_Start_IT+0x5e>
 800211e:	4b45      	ldr	r3, [pc, #276]	; (8002234 <HAL_ADC_Start_IT+0x168>)
 8002120:	685b      	ldr	r3, [r3, #4]
 8002122:	f403 2370 	and.w	r3, r3, #983040	; 0xf0000
 8002126:	2b00      	cmp	r3, #0
 8002128:	d115      	bne.n	8002156 <HAL_ADC_Start_IT+0x8a>
 800212a:	687b      	ldr	r3, [r7, #4]
 800212c:	6a9b      	ldr	r3, [r3, #40]	; 0x28
 800212e:	f423 1280 	bic.w	r2, r3, #1048576	; 0x100000
 8002132:	687b      	ldr	r3, [r7, #4]
 8002134:	629a      	str	r2, [r3, #40]	; 0x28
 8002136:	687b      	ldr	r3, [r7, #4]
 8002138:	681b      	ldr	r3, [r3, #0]
 800213a:	685b      	ldr	r3, [r3, #4]
 800213c:	f403 6380 	and.w	r3, r3, #1024	; 0x400
 8002140:	2b00      	cmp	r3, #0
 8002142:	d026      	beq.n	8002192 <HAL_ADC_Start_IT+0xc6>
 8002144:	687b      	ldr	r3, [r7, #4]
 8002146:	6a9b      	ldr	r3, [r3, #40]	; 0x28
 8002148:	f423 5340 	bic.w	r3, r3, #12288	; 0x3000
 800214c:	f443 5280 	orr.w	r2, r3, #4096	; 0x1000
 8002150:	687b      	ldr	r3, [r7, #4]
 8002152:	629a      	str	r2, [r3, #40]	; 0x28
 8002154:	e01d      	b.n	8002192 <HAL_ADC_Start_IT+0xc6>
 8002156:	687b      	ldr	r3, [r7, #4]
 8002158:	6a9b      	ldr	r3, [r3, #40]	; 0x28
 800215a:	f443 1280 	orr.w	r2, r3, #1048576	; 0x100000
 800215e:	687b      	ldr	r3, [r7, #4]
 8002160:	629a      	str	r2, [r3, #40]	; 0x28
 8002162:	687b      	ldr	r3, [r7, #4]
 8002164:	681b      	ldr	r3, [r3, #0]
 8002166:	4a33      	ldr	r2, [pc, #204]	; (8002234 <HAL_ADC_Start_IT+0x168>)
 8002168:	4293      	cmp	r3, r2
 800216a:	d004      	beq.n	8002176 <HAL_ADC_Start_IT+0xaa>
 800216c:	687b      	ldr	r3, [r7, #4]
 800216e:	681b      	ldr	r3, [r3, #0]
 8002170:	4a2f      	ldr	r2, [pc, #188]	; (8002230 <HAL_ADC_Start_IT+0x164>)
 8002172:	4293      	cmp	r3, r2
 8002174:	d10d      	bne.n	8002192 <HAL_ADC_Start_IT+0xc6>
 8002176:	4b2f      	ldr	r3, [pc, #188]	; (8002234 <HAL_ADC_Start_IT+0x168>)
 8002178:	685b      	ldr	r3, [r3, #4]
 800217a:	f403 6380 	and.w	r3, r3, #1024	; 0x400
 800217e:	2b00      	cmp	r3, #0
 8002180:	d007      	beq.n	8002192 <HAL_ADC_Start_IT+0xc6>
 8002182:	687b      	ldr	r3, [r7, #4]
 8002184:	6a9b      	ldr	r3, [r3, #40]	; 0x28
 8002186:	f423 5340 	bic.w	r3, r3, #12288	; 0x3000
 800218a:	f443 5280 	orr.w	r2, r3, #4096	; 0x1000
 800218e:	687b      	ldr	r3, [r7, #4]
 8002190:	629a      	str	r2, [r3, #40]	; 0x28
 8002192:	687b      	ldr	r3, [r7, #4]
 8002194:	6a9b      	ldr	r3, [r3, #40]	; 0x28
 8002196:	f403 5380 	and.w	r3, r3, #4096	; 0x1000
 800219a:	2b00      	cmp	r3, #0
 800219c:	d006      	beq.n	80021ac <HAL_ADC_Start_IT+0xe0>
 800219e:	687b      	ldr	r3, [r7, #4]
 80021a0:	6adb      	ldr	r3, [r3, #44]	; 0x2c
 80021a2:	f023 0206 	bic.w	r2, r3, #6
 80021a6:	687b      	ldr	r3, [r7, #4]
 80021a8:	62da      	str	r2, [r3, #44]	; 0x2c
 80021aa:	e002      	b.n	80021b2 <HAL_ADC_Start_IT+0xe6>
 80021ac:	687b      	ldr	r3, [r7, #4]
 80021ae:	2200      	movs	r2, #0
 80021b0:	62da      	str	r2, [r3, #44]	; 0x2c
 80021b2:	687b      	ldr	r3, [r7, #4]
 80021b4:	2200      	movs	r2, #0
 80021b6:	f883 2024 	strb.w	r2, [r3, #36]	; 0x24
 80021ba:	687b      	ldr	r3, [r7, #4]
 80021bc:	681b      	ldr	r3, [r3, #0]
 80021be:	f06f 0202 	mvn.w	r2, #2
 80021c2:	601a      	str	r2, [r3, #0]
 80021c4:	687b      	ldr	r3, [r7, #4]
 80021c6:	681b      	ldr	r3, [r3, #0]
 80021c8:	685a      	ldr	r2, [r3, #4]
 80021ca:	687b      	ldr	r3, [r7, #4]
 80021cc:	681b      	ldr	r3, [r3, #0]
 80021ce:	f042 0220 	orr.w	r2, r2, #32
 80021d2:	605a      	str	r2, [r3, #4]
 80021d4:	687b      	ldr	r3, [r7, #4]
 80021d6:	681b      	ldr	r3, [r3, #0]
 80021d8:	689b      	ldr	r3, [r3, #8]
 80021da:	f403 2360 	and.w	r3, r3, #917504	; 0xe0000
 80021de:	f5b3 2f60 	cmp.w	r3, #917504	; 0xe0000
 80021e2:	d113      	bne.n	800220c <HAL_ADC_Start_IT+0x140>
 80021e4:	687b      	ldr	r3, [r7, #4]
 80021e6:	681b      	ldr	r3, [r3, #0]
 80021e8:	4a11      	ldr	r2, [pc, #68]	; (8002230 <HAL_ADC_Start_IT+0x164>)
 80021ea:	4293      	cmp	r3, r2
 80021ec:	d105      	bne.n	80021fa <HAL_ADC_Start_IT+0x12e>
 80021ee:	4b11      	ldr	r3, [pc, #68]	; (8002234 <HAL_ADC_Start_IT+0x168>)
 80021f0:	685b      	ldr	r3, [r3, #4]
 80021f2:	f403 2370 	and.w	r3, r3, #983040	; 0xf0000
 80021f6:	2b00      	cmp	r3, #0
 80021f8:	d108      	bne.n	800220c <HAL_ADC_Start_IT+0x140>
 80021fa:	687b      	ldr	r3, [r7, #4]
 80021fc:	681b      	ldr	r3, [r3, #0]
 80021fe:	689a      	ldr	r2, [r3, #8]
 8002200:	687b      	ldr	r3, [r7, #4]
 8002202:	681b      	ldr	r3, [r3, #0]
 8002204:	f442 02a0 	orr.w	r2, r2, #5242880	; 0x500000
 8002208:	609a      	str	r2, [r3, #8]
 800220a:	e00c      	b.n	8002226 <HAL_ADC_Start_IT+0x15a>
 800220c:	687b      	ldr	r3, [r7, #4]
 800220e:	681b      	ldr	r3, [r3, #0]
 8002210:	689a      	ldr	r2, [r3, #8]
 8002212:	687b      	ldr	r3, [r7, #4]
 8002214:	681b      	ldr	r3, [r3, #0]
 8002216:	f442 1280 	orr.w	r2, r2, #1048576	; 0x100000
 800221a:	609a      	str	r2, [r3, #8]
 800221c:	e003      	b.n	8002226 <HAL_ADC_Start_IT+0x15a>
 800221e:	687b      	ldr	r3, [r7, #4]
 8002220:	2200      	movs	r2, #0
 8002222:	f883 2024 	strb.w	r2, [r3, #36]	; 0x24
 8002226:	7bfb      	ldrb	r3, [r7, #15]
 8002228:	4618      	mov	r0, r3
 800222a:	3710      	adds	r7, #16
 800222c:	46bd      	mov	sp, r7
 800222e:	bd80      	pop	{r7, pc}
 8002230:	40012800 	.word	0x40012800
 8002234:	40012400 	.word	0x40012400

08002238 <HAL_ADC_GetValue>:
 8002238:	b480      	push	{r7}
 800223a:	b083      	sub	sp, #12
 800223c:	af00      	add	r7, sp, #0
 800223e:	6078      	str	r0, [r7, #4]
 8002240:	687b      	ldr	r3, [r7, #4]
 8002242:	681b      	ldr	r3, [r3, #0]
 8002244:	6cdb      	ldr	r3, [r3, #76]	; 0x4c
 8002246:	4618      	mov	r0, r3
 8002248:	370c      	adds	r7, #12
 800224a:	46bd      	mov	sp, r7
 800224c:	bc80      	pop	{r7}
 800224e:	4770      	bx	lr

08002250 <HAL_ADC_IRQHandler>:
 8002250:	b580      	push	{r7, lr}
 8002252:	b082      	sub	sp, #8
 8002254:	af00      	add	r7, sp, #0
 8002256:	6078      	str	r0, [r7, #4]
 8002258:	687b      	ldr	r3, [r7, #4]
 800225a:	681b      	ldr	r3, [r3, #0]
 800225c:	685b      	ldr	r3, [r3, #4]
 800225e:	f003 0320 	and.w	r3, r3, #32
 8002262:	2b20      	cmp	r3, #32
 8002264:	d140      	bne.n	80022e8 <HAL_ADC_IRQHandler+0x98>
 8002266:	687b      	ldr	r3, [r7, #4]
 8002268:	681b      	ldr	r3, [r3, #0]
 800226a:	681b      	ldr	r3, [r3, #0]
 800226c:	f003 0302 	and.w	r3, r3, #2
 8002270:	2b02      	cmp	r3, #2
 8002272:	d139      	bne.n	80022e8 <HAL_ADC_IRQHandler+0x98>
 8002274:	687b      	ldr	r3, [r7, #4]
 8002276:	6a9b      	ldr	r3, [r3, #40]	; 0x28
 8002278:	f003 0310 	and.w	r3, r3, #16
 800227c:	2b00      	cmp	r3, #0
 800227e:	d105      	bne.n	800228c <HAL_ADC_IRQHandler+0x3c>
 8002280:	687b      	ldr	r3, [r7, #4]
 8002282:	6a9b      	ldr	r3, [r3, #40]	; 0x28
 8002284:	f443 7200 	orr.w	r2, r3, #512	; 0x200
 8002288:	687b      	ldr	r3, [r7, #4]
 800228a:	629a      	str	r2, [r3, #40]	; 0x28
 800228c:	687b      	ldr	r3, [r7, #4]
 800228e:	681b      	ldr	r3, [r3, #0]
 8002290:	689b      	ldr	r3, [r3, #8]
 8002292:	f403 2360 	and.w	r3, r3, #917504	; 0xe0000
 8002296:	f5b3 2f60 	cmp.w	r3, #917504	; 0xe0000
 800229a:	d11d      	bne.n	80022d8 <HAL_ADC_IRQHandler+0x88>
 800229c:	687b      	ldr	r3, [r7, #4]
 800229e:	7b1b      	ldrb	r3, [r3, #12]
 80022a0:	2b00      	cmp	r3, #0
 80022a2:	d119      	bne.n	80022d8 <HAL_ADC_IRQHandler+0x88>
 80022a4:	687b      	ldr	r3, [r7, #4]
 80022a6:	681b      	ldr	r3, [r3, #0]
 80022a8:	685a      	ldr	r2, [r3, #4]
 80022aa:	687b      	ldr	r3, [r7, #4]
 80022ac:	681b      	ldr	r3, [r3, #0]
 80022ae:	f022 0220 	bic.w	r2, r2, #32
 80022b2:	605a      	str	r2, [r3, #4]
 80022b4:	687b      	ldr	r3, [r7, #4]
 80022b6:	6a9b      	ldr	r3, [r3, #40]	; 0x28
 80022b8:	f423 7280 	bic.w	r2, r3, #256	; 0x100
 80022bc:	687b      	ldr	r3, [r7, #4]
 80022be:	629a      	str	r2, [r3, #40]	; 0x28
 80022c0:	687b      	ldr	r3, [r7, #4]
 80022c2:	6a9b      	ldr	r3, [r3, #40]	; 0x28
 80022c4:	f403 5380 	and.w	r3, r3, #4096	; 0x1000
 80022c8:	2b00      	cmp	r3, #0
 80022ca:	d105      	bne.n	80022d8 <HAL_ADC_IRQHandler+0x88>
 80022cc:	687b      	ldr	r3, [r7, #4]
 80022ce:	6a9b      	ldr	r3, [r3, #40]	; 0x28
 80022d0:	f043 0201 	orr.w	r2, r3, #1
 80022d4:	687b      	ldr	r3, [r7, #4]
 80022d6:	629a      	str	r2, [r3, #40]	; 0x28
 80022d8:	6878      	ldr	r0, [r7, #4]
 80022da:	f7ff fb7d 	bl	80019d8 <HAL_ADC_ConvCpltCallback>
 80022de:	687b      	ldr	r3, [r7, #4]
 80022e0:	681b      	ldr	r3, [r3, #0]
 80022e2:	f06f 0212 	mvn.w	r2, #18
 80022e6:	601a      	str	r2, [r3, #0]
 80022e8:	687b      	ldr	r3, [r7, #4]
 80022ea:	681b      	ldr	r3, [r3, #0]
 80022ec:	685b      	ldr	r3, [r3, #4]
 80022ee:	f003 0380 	and.w	r3, r3, #128	; 0x80
 80022f2:	2b80      	cmp	r3, #128	; 0x80
 80022f4:	d14f      	bne.n	8002396 <HAL_ADC_IRQHandler+0x146>
 80022f6:	687b      	ldr	r3, [r7, #4]
 80022f8:	681b      	ldr	r3, [r3, #0]
 80022fa:	681b      	ldr	r3, [r3, #0]
 80022fc:	f003 0304 	and.w	r3, r3, #4
 8002300:	2b04      	cmp	r3, #4
 8002302:	d148      	bne.n	8002396 <HAL_ADC_IRQHandler+0x146>
 8002304:	687b      	ldr	r3, [r7, #4]
 8002306:	6a9b      	ldr	r3, [r3, #40]	; 0x28
 8002308:	f003 0310 	and.w	r3, r3, #16
 800230c:	2b00      	cmp	r3, #0
 800230e:	d105      	bne.n	800231c <HAL_ADC_IRQHandler+0xcc>
 8002310:	687b      	ldr	r3, [r7, #4]
 8002312:	6a9b      	ldr	r3, [r3, #40]	; 0x28
 8002314:	f443 5200 	orr.w	r2, r3, #8192	; 0x2000
 8002318:	687b      	ldr	r3, [r7, #4]
 800231a:	629a      	str	r2, [r3, #40]	; 0x28
 800231c:	687b      	ldr	r3, [r7, #4]
 800231e:	681b      	ldr	r3, [r3, #0]
 8002320:	689b      	ldr	r3, [r3, #8]
 8002322:	f403 43e0 	and.w	r3, r3, #28672	; 0x7000
 8002326:	f5b3 4fe0 	cmp.w	r3, #28672	; 0x7000
 800232a:	d012      	beq.n	8002352 <HAL_ADC_IRQHandler+0x102>
 800232c:	687b      	ldr	r3, [r7, #4]
 800232e:	681b      	ldr	r3, [r3, #0]
 8002330:	685b      	ldr	r3, [r3, #4]
 8002332:	f403 6380 	and.w	r3, r3, #1024	; 0x400
 8002336:	2b00      	cmp	r3, #0
 8002338:	d125      	bne.n	8002386 <HAL_ADC_IRQHandler+0x136>
 800233a:	687b      	ldr	r3, [r7, #4]
 800233c:	681b      	ldr	r3, [r3, #0]
 800233e:	689b      	ldr	r3, [r3, #8]
 8002340:	f403 2360 	and.w	r3, r3, #917504	; 0xe0000
 8002344:	f5b3 2f60 	cmp.w	r3, #917504	; 0xe0000
 8002348:	d11d      	bne.n	8002386 <HAL_ADC_IRQHandler+0x136>
 800234a:	687b      	ldr	r3, [r7, #4]
 800234c:	7b1b      	ldrb	r3, [r3, #12]
 800234e:	2b00      	cmp	r3, #0
 8002350:	d119      	bne.n	8002386 <HAL_ADC_IRQHandler+0x136>
 8002352:	687b      	ldr	r3, [r7, #4]
 8002354:	681b      	ldr	r3, [r3, #0]
 8002356:	685a      	ldr	r2, [r3, #4]
 8002358:	687b      	ldr	r3, [r7, #4]
 800235a:	681b      	ldr	r3, [r3, #0]
 800235c:	f022 0280 	bic.w	r2, r2, #128	; 0x80
 8002360:	605a      	str	r2, [r3, #4]
 8002362:	687b      	ldr	r3, [r7, #4]
 8002364:	6a9b      	ldr	r3, [r3, #40]	; 0x28
 8002366:	f423 5280 	bic.w	r2, r3, #4096	; 0x1000
 800236a:	687b      	ldr	r3, [r7, #4]
 800236c:	629a      	str	r2, [r3, #40]	; 0x28
 800236e:	687b      	ldr	r3, [r7, #4]
 8002370:	6a9b      	ldr	r3, [r3, #40]	; 0x28
 8002372:	f403 7380 	and.w	r3, r3, #256	; 0x100
 8002376:	2b00      	cmp	r3, #0
 8002378:	d105      	bne.n	8002386 <HAL_ADC_IRQHandler+0x136>
 800237a:	687b      	ldr	r3, [r7, #4]
 800237c:	6a9b      	ldr	r3, [r3, #40]	; 0x28
 800237e:	f043 0201 	orr.w	r2, r3, #1
 8002382:	687b      	ldr	r3, [r7, #4]
 8002384:	629a      	str	r2, [r3, #40]	; 0x28
 8002386:	6878      	ldr	r0, [r7, #4]
 8002388:	f000 f9c1 	bl	800270e <HAL_ADCEx_InjectedConvCpltCallback>
 800238c:	687b      	ldr	r3, [r7, #4]
 800238e:	681b      	ldr	r3, [r3, #0]
 8002390:	f06f 020c 	mvn.w	r2, #12
 8002394:	601a      	str	r2, [r3, #0]
 8002396:	687b      	ldr	r3, [r7, #4]
 8002398:	681b      	ldr	r3, [r3, #0]
 800239a:	685b      	ldr	r3, [r3, #4]
 800239c:	f003 0340 	and.w	r3, r3, #64	; 0x40
 80023a0:	2b40      	cmp	r3, #64	; 0x40
 80023a2:	d114      	bne.n	80023ce <HAL_ADC_IRQHandler+0x17e>
 80023a4:	687b      	ldr	r3, [r7, #4]
 80023a6:	681b      	ldr	r3, [r3, #0]
 80023a8:	681b      	ldr	r3, [r3, #0]
 80023aa:	f003 0301 	and.w	r3, r3, #1
 80023ae:	2b01      	cmp	r3, #1
 80023b0:	d10d      	bne.n	80023ce <HAL_ADC_IRQHandler+0x17e>
 80023b2:	687b      	ldr	r3, [r7, #4]
 80023b4:	6a9b      	ldr	r3, [r3, #40]	; 0x28
 80023b6:	f443 3280 	orr.w	r2, r3, #65536	; 0x10000
 80023ba:	687b      	ldr	r3, [r7, #4]
 80023bc:	629a      	str	r2, [r3, #40]	; 0x28
 80023be:	6878      	ldr	r0, [r7, #4]
 80023c0:	f000 f809 	bl	80023d6 <HAL_ADC_LevelOutOfWindowCallback>
 80023c4:	687b      	ldr	r3, [r7, #4]
 80023c6:	681b      	ldr	r3, [r3, #0]
 80023c8:	f06f 0201 	mvn.w	r2, #1
 80023cc:	601a      	str	r2, [r3, #0]
 80023ce:	bf00      	nop
 80023d0:	3708      	adds	r7, #8
 80023d2:	46bd      	mov	sp, r7
 80023d4:	bd80      	pop	{r7, pc}

080023d6 <HAL_ADC_LevelOutOfWindowCallback>:
 80023d6:	b480      	push	{r7}
 80023d8:	b083      	sub	sp, #12
 80023da:	af00      	add	r7, sp, #0
 80023dc:	6078      	str	r0, [r7, #4]
 80023de:	bf00      	nop
 80023e0:	370c      	adds	r7, #12
 80023e2:	46bd      	mov	sp, r7
 80023e4:	bc80      	pop	{r7}
 80023e6:	4770      	bx	lr

080023e8 <HAL_ADC_ConfigChannel>:
 80023e8:	b480      	push	{r7}
 80023ea:	b085      	sub	sp, #20
 80023ec:	af00      	add	r7, sp, #0
 80023ee:	6078      	str	r0, [r7, #4]
 80023f0:	6039      	str	r1, [r7, #0]
 80023f2:	2300      	movs	r3, #0
 80023f4:	73fb      	strb	r3, [r7, #15]
 80023f6:	2300      	movs	r3, #0
 80023f8:	60bb      	str	r3, [r7, #8]
 80023fa:	687b      	ldr	r3, [r7, #4]
 80023fc:	f893 3024 	ldrb.w	r3, [r3, #36]	; 0x24
 8002400:	2b01      	cmp	r3, #1
 8002402:	d101      	bne.n	8002408 <HAL_ADC_ConfigChannel+0x20>
 8002404:	2302      	movs	r3, #2
 8002406:	e0dc      	b.n	80025c2 <HAL_ADC_ConfigChannel+0x1da>
 8002408:	687b      	ldr	r3, [r7, #4]
 800240a:	2201      	movs	r2, #1
 800240c:	f883 2024 	strb.w	r2, [r3, #36]	; 0x24
 8002410:	683b      	ldr	r3, [r7, #0]
 8002412:	685b      	ldr	r3, [r3, #4]
 8002414:	2b06      	cmp	r3, #6
 8002416:	d81c      	bhi.n	8002452 <HAL_ADC_ConfigChannel+0x6a>
 8002418:	687b      	ldr	r3, [r7, #4]
 800241a:	681b      	ldr	r3, [r3, #0]
 800241c:	6b59      	ldr	r1, [r3, #52]	; 0x34
 800241e:	683b      	ldr	r3, [r7, #0]
 8002420:	685a      	ldr	r2, [r3, #4]
 8002422:	4613      	mov	r3, r2
 8002424:	009b      	lsls	r3, r3, #2
 8002426:	4413      	add	r3, r2
 8002428:	3b05      	subs	r3, #5
 800242a:	221f      	movs	r2, #31
 800242c:	fa02 f303 	lsl.w	r3, r2, r3
 8002430:	43db      	mvns	r3, r3
 8002432:	4019      	ands	r1, r3
 8002434:	683b      	ldr	r3, [r7, #0]
 8002436:	6818      	ldr	r0, [r3, #0]
 8002438:	683b      	ldr	r3, [r7, #0]
 800243a:	685a      	ldr	r2, [r3, #4]
 800243c:	4613      	mov	r3, r2
 800243e:	009b      	lsls	r3, r3, #2
 8002440:	4413      	add	r3, r2
 8002442:	3b05      	subs	r3, #5
 8002444:	fa00 f203 	lsl.w	r2, r0, r3
 8002448:	687b      	ldr	r3, [r7, #4]
 800244a:	681b      	ldr	r3, [r3, #0]
 800244c:	430a      	orrs	r2, r1
 800244e:	635a      	str	r2, [r3, #52]	; 0x34
 8002450:	e03c      	b.n	80024cc <HAL_ADC_ConfigChannel+0xe4>
 8002452:	683b      	ldr	r3, [r7, #0]
 8002454:	685b      	ldr	r3, [r3, #4]
 8002456:	2b0c      	cmp	r3, #12
 8002458:	d81c      	bhi.n	8002494 <HAL_ADC_ConfigChannel+0xac>
 800245a:	687b      	ldr	r3, [r7, #4]
 800245c:	681b      	ldr	r3, [r3, #0]
 800245e:	6b19      	ldr	r1, [r3, #48]	; 0x30
 8002460:	683b      	ldr	r3, [r7, #0]
 8002462:	685a      	ldr	r2, [r3, #4]
 8002464:	4613      	mov	r3, r2
 8002466:	009b      	lsls	r3, r3, #2
 8002468:	4413      	add	r3, r2
 800246a:	3b23      	subs	r3, #35	; 0x23
 800246c:	221f      	movs	r2, #31
 800246e:	fa02 f303 	lsl.w	r3, r2, r3
 8002472:	43db      	mvns	r3, r3
 8002474:	4019      	ands	r1, r3
 8002476:	683b      	ldr	r3, [r7, #0]
 8002478:	6818      	ldr	r0, [r3, #0]
 800247a:	683b      	ldr	r3, [r7, #0]
 800247c:	685a      	ldr	r2, [r3, #4]
 800247e:	4613      	mov	r3, r2
 8002480:	009b      	lsls	r3, r3, #2
 8002482:	4413      	add	r3, r2
 8002484:	3b23      	subs	r3, #35	; 0x23
 8002486:	fa00 f203 	lsl.w	r2, r0, r3
 800248a:	687b      	ldr	r3, [r7, #4]
 800248c:	681b      	ldr	r3, [r3, #0]
 800248e:	430a      	orrs	r2, r1
 8002490:	631a      	str	r2, [r3, #48]	; 0x30
 8002492:	e01b      	b.n	80024cc <HAL_ADC_ConfigChannel+0xe4>
 8002494:	687b      	ldr	r3, [r7, #4]
 8002496:	681b      	ldr	r3, [r3, #0]
 8002498:	6ad9      	ldr	r1, [r3, #44]	; 0x2c
 800249a:	683b      	ldr	r3, [r7, #0]
 800249c:	685a      	ldr	r2, [r3, #4]
 800249e:	4613      	mov	r3, r2
 80024a0:	009b      	lsls	r3, r3, #2
 80024a2:	4413      	add	r3, r2
 80024a4:	3b41      	subs	r3, #65	; 0x41
 80024a6:	221f      	movs	r2, #31
 80024a8:	fa02 f303 	lsl.w	r3, r2, r3
 80024ac:	43db      	mvns	r3, r3
 80024ae:	4019      	ands	r1, r3
 80024b0:	683b      	ldr	r3, [r7, #0]
 80024b2:	6818      	ldr	r0, [r3, #0]
 80024b4:	683b      	ldr	r3, [r7, #0]
 80024b6:	685a      	ldr	r2, [r3, #4]
 80024b8:	4613      	mov	r3, r2
 80024ba:	009b      	lsls	r3, r3, #2
 80024bc:	4413      	add	r3, r2
 80024be:	3b41      	subs	r3, #65	; 0x41
 80024c0:	fa00 f203 	lsl.w	r2, r0, r3
 80024c4:	687b      	ldr	r3, [r7, #4]
 80024c6:	681b      	ldr	r3, [r3, #0]
 80024c8:	430a      	orrs	r2, r1
 80024ca:	62da      	str	r2, [r3, #44]	; 0x2c
 80024cc:	683b      	ldr	r3, [r7, #0]
 80024ce:	681b      	ldr	r3, [r3, #0]
 80024d0:	2b09      	cmp	r3, #9
 80024d2:	d91c      	bls.n	800250e <HAL_ADC_ConfigChannel+0x126>
 80024d4:	687b      	ldr	r3, [r7, #4]
 80024d6:	681b      	ldr	r3, [r3, #0]
 80024d8:	68d9      	ldr	r1, [r3, #12]
 80024da:	683b      	ldr	r3, [r7, #0]
 80024dc:	681a      	ldr	r2, [r3, #0]
 80024de:	4613      	mov	r3, r2
 80024e0:	005b      	lsls	r3, r3, #1
 80024e2:	4413      	add	r3, r2
 80024e4:	3b1e      	subs	r3, #30
 80024e6:	2207      	movs	r2, #7
 80024e8:	fa02 f303 	lsl.w	r3, r2, r3
 80024ec:	43db      	mvns	r3, r3
 80024ee:	4019      	ands	r1, r3
 80024f0:	683b      	ldr	r3, [r7, #0]
 80024f2:	6898      	ldr	r0, [r3, #8]
 80024f4:	683b      	ldr	r3, [r7, #0]
 80024f6:	681a      	ldr	r2, [r3, #0]
 80024f8:	4613      	mov	r3, r2
 80024fa:	005b      	lsls	r3, r3, #1
 80024fc:	4413      	add	r3, r2
 80024fe:	3b1e      	subs	r3, #30
 8002500:	fa00 f203 	lsl.w	r2, r0, r3
 8002504:	687b      	ldr	r3, [r7, #4]
 8002506:	681b      	ldr	r3, [r3, #0]
 8002508:	430a      	orrs	r2, r1
 800250a:	60da      	str	r2, [r3, #12]
 800250c:	e019      	b.n	8002542 <HAL_ADC_ConfigChannel+0x15a>
 800250e:	687b      	ldr	r3, [r7, #4]
 8002510:	681b      	ldr	r3, [r3, #0]
 8002512:	6919      	ldr	r1, [r3, #16]
 8002514:	683b      	ldr	r3, [r7, #0]
 8002516:	681a      	ldr	r2, [r3, #0]
 8002518:	4613      	mov	r3, r2
 800251a:	005b      	lsls	r3, r3, #1
 800251c:	4413      	add	r3, r2
 800251e:	2207      	movs	r2, #7
 8002520:	fa02 f303 	lsl.w	r3, r2, r3
 8002524:	43db      	mvns	r3, r3
 8002526:	4019      	ands	r1, r3
 8002528:	683b      	ldr	r3, [r7, #0]
 800252a:	6898      	ldr	r0, [r3, #8]
 800252c:	683b      	ldr	r3, [r7, #0]
 800252e:	681a      	ldr	r2, [r3, #0]
 8002530:	4613      	mov	r3, r2
 8002532:	005b      	lsls	r3, r3, #1
 8002534:	4413      	add	r3, r2
 8002536:	fa00 f203 	lsl.w	r2, r0, r3
 800253a:	687b      	ldr	r3, [r7, #4]
 800253c:	681b      	ldr	r3, [r3, #0]
 800253e:	430a      	orrs	r2, r1
 8002540:	611a      	str	r2, [r3, #16]
 8002542:	683b      	ldr	r3, [r7, #0]
 8002544:	681b      	ldr	r3, [r3, #0]
 8002546:	2b10      	cmp	r3, #16
 8002548:	d003      	beq.n	8002552 <HAL_ADC_ConfigChannel+0x16a>
 800254a:	683b      	ldr	r3, [r7, #0]
 800254c:	681b      	ldr	r3, [r3, #0]
 800254e:	2b11      	cmp	r3, #17
 8002550:	d132      	bne.n	80025b8 <HAL_ADC_ConfigChannel+0x1d0>
 8002552:	687b      	ldr	r3, [r7, #4]
 8002554:	681b      	ldr	r3, [r3, #0]
 8002556:	4a1d      	ldr	r2, [pc, #116]	; (80025cc <HAL_ADC_ConfigChannel+0x1e4>)
 8002558:	4293      	cmp	r3, r2
 800255a:	d125      	bne.n	80025a8 <HAL_ADC_ConfigChannel+0x1c0>
 800255c:	687b      	ldr	r3, [r7, #4]
 800255e:	681b      	ldr	r3, [r3, #0]
 8002560:	689b      	ldr	r3, [r3, #8]
 8002562:	f403 0300 	and.w	r3, r3, #8388608	; 0x800000
 8002566:	2b00      	cmp	r3, #0
 8002568:	d126      	bne.n	80025b8 <HAL_ADC_ConfigChannel+0x1d0>
 800256a:	687b      	ldr	r3, [r7, #4]
 800256c:	681b      	ldr	r3, [r3, #0]
 800256e:	689a      	ldr	r2, [r3, #8]
 8002570:	687b      	ldr	r3, [r7, #4]
 8002572:	681b      	ldr	r3, [r3, #0]
 8002574:	f442 0200 	orr.w	r2, r2, #8388608	; 0x800000
 8002578:	609a      	str	r2, [r3, #8]
 800257a:	683b      	ldr	r3, [r7, #0]
 800257c:	681b      	ldr	r3, [r3, #0]
 800257e:	2b10      	cmp	r3, #16
 8002580:	d11a      	bne.n	80025b8 <HAL_ADC_ConfigChannel+0x1d0>
 8002582:	4b13      	ldr	r3, [pc, #76]	; (80025d0 <HAL_ADC_ConfigChannel+0x1e8>)
 8002584:	681b      	ldr	r3, [r3, #0]
 8002586:	4a13      	ldr	r2, [pc, #76]	; (80025d4 <HAL_ADC_ConfigChannel+0x1ec>)
 8002588:	fba2 2303 	umull	r2, r3, r2, r3
 800258c:	0c9a      	lsrs	r2, r3, #18
 800258e:	4613      	mov	r3, r2
 8002590:	009b      	lsls	r3, r3, #2
 8002592:	4413      	add	r3, r2
 8002594:	005b      	lsls	r3, r3, #1
 8002596:	60bb      	str	r3, [r7, #8]
 8002598:	e002      	b.n	80025a0 <HAL_ADC_ConfigChannel+0x1b8>
 800259a:	68bb      	ldr	r3, [r7, #8]
 800259c:	3b01      	subs	r3, #1
 800259e:	60bb      	str	r3, [r7, #8]
 80025a0:	68bb      	ldr	r3, [r7, #8]
 80025a2:	2b00      	cmp	r3, #0
 80025a4:	d1f9      	bne.n	800259a <HAL_ADC_ConfigChannel+0x1b2>
 80025a6:	e007      	b.n	80025b8 <HAL_ADC_ConfigChannel+0x1d0>
 80025a8:	687b      	ldr	r3, [r7, #4]
 80025aa:	6a9b      	ldr	r3, [r3, #40]	; 0x28
 80025ac:	f043 0220 	orr.w	r2, r3, #32
 80025b0:	687b      	ldr	r3, [r7, #4]
 80025b2:	629a      	str	r2, [r3, #40]	; 0x28
 80025b4:	2301      	movs	r3, #1
 80025b6:	73fb      	strb	r3, [r7, #15]
 80025b8:	687b      	ldr	r3, [r7, #4]
 80025ba:	2200      	movs	r2, #0
 80025bc:	f883 2024 	strb.w	r2, [r3, #36]	; 0x24
 80025c0:	7bfb      	ldrb	r3, [r7, #15]
 80025c2:	4618      	mov	r0, r3
 80025c4:	3714      	adds	r7, #20
 80025c6:	46bd      	mov	sp, r7
 80025c8:	bc80      	pop	{r7}
 80025ca:	4770      	bx	lr
 80025cc:	40012400 	.word	0x40012400
 80025d0:	20000000 	.word	0x20000000
 80025d4:	431bde83 	.word	0x431bde83

080025d8 <ADC_Enable>:
 80025d8:	b580      	push	{r7, lr}
 80025da:	b084      	sub	sp, #16
 80025dc:	af00      	add	r7, sp, #0
 80025de:	6078      	str	r0, [r7, #4]
 80025e0:	2300      	movs	r3, #0
 80025e2:	60fb      	str	r3, [r7, #12]
 80025e4:	2300      	movs	r3, #0
 80025e6:	60bb      	str	r3, [r7, #8]
 80025e8:	687b      	ldr	r3, [r7, #4]
 80025ea:	681b      	ldr	r3, [r3, #0]
 80025ec:	689b      	ldr	r3, [r3, #8]
 80025ee:	f003 0301 	and.w	r3, r3, #1
 80025f2:	2b01      	cmp	r3, #1
 80025f4:	d040      	beq.n	8002678 <ADC_Enable+0xa0>
 80025f6:	687b      	ldr	r3, [r7, #4]
 80025f8:	681b      	ldr	r3, [r3, #0]
 80025fa:	689a      	ldr	r2, [r3, #8]
 80025fc:	687b      	ldr	r3, [r7, #4]
 80025fe:	681b      	ldr	r3, [r3, #0]
 8002600:	f042 0201 	orr.w	r2, r2, #1
 8002604:	609a      	str	r2, [r3, #8]
 8002606:	4b1f      	ldr	r3, [pc, #124]	; (8002684 <ADC_Enable+0xac>)
 8002608:	681b      	ldr	r3, [r3, #0]
 800260a:	4a1f      	ldr	r2, [pc, #124]	; (8002688 <ADC_Enable+0xb0>)
 800260c:	fba2 2303 	umull	r2, r3, r2, r3
 8002610:	0c9b      	lsrs	r3, r3, #18
 8002612:	60bb      	str	r3, [r7, #8]
 8002614:	e002      	b.n	800261c <ADC_Enable+0x44>
 8002616:	68bb      	ldr	r3, [r7, #8]
 8002618:	3b01      	subs	r3, #1
 800261a:	60bb      	str	r3, [r7, #8]
 800261c:	68bb      	ldr	r3, [r7, #8]
 800261e:	2b00      	cmp	r3, #0
 8002620:	d1f9      	bne.n	8002616 <ADC_Enable+0x3e>
 8002622:	f7ff fc4d 	bl	8001ec0 <HAL_GetTick>
 8002626:	60f8      	str	r0, [r7, #12]
 8002628:	e01f      	b.n	800266a <ADC_Enable+0x92>
 800262a:	f7ff fc49 	bl	8001ec0 <HAL_GetTick>
 800262e:	4602      	mov	r2, r0
 8002630:	68fb      	ldr	r3, [r7, #12]
 8002632:	1ad3      	subs	r3, r2, r3
 8002634:	2b02      	cmp	r3, #2
 8002636:	d918      	bls.n	800266a <ADC_Enable+0x92>
 8002638:	687b      	ldr	r3, [r7, #4]
 800263a:	681b      	ldr	r3, [r3, #0]
 800263c:	689b      	ldr	r3, [r3, #8]
 800263e:	f003 0301 	and.w	r3, r3, #1
 8002642:	2b01      	cmp	r3, #1
 8002644:	d011      	beq.n	800266a <ADC_Enable+0x92>
 8002646:	687b      	ldr	r3, [r7, #4]
 8002648:	6a9b      	ldr	r3, [r3, #40]	; 0x28
 800264a:	f043 0210 	orr.w	r2, r3, #16
 800264e:	687b      	ldr	r3, [r7, #4]
 8002650:	629a      	str	r2, [r3, #40]	; 0x28
 8002652:	687b      	ldr	r3, [r7, #4]
 8002654:	6adb      	ldr	r3, [r3, #44]	; 0x2c
 8002656:	f043 0201 	orr.w	r2, r3, #1
 800265a:	687b      	ldr	r3, [r7, #4]
 800265c:	62da      	str	r2, [r3, #44]	; 0x2c
 800265e:	687b      	ldr	r3, [r7, #4]
 8002660:	2200      	movs	r2, #0
 8002662:	f883 2024 	strb.w	r2, [r3, #36]	; 0x24
 8002666:	2301      	movs	r3, #1
 8002668:	e007      	b.n	800267a <ADC_Enable+0xa2>
 800266a:	687b      	ldr	r3, [r7, #4]
 800266c:	681b      	ldr	r3, [r3, #0]
 800266e:	689b      	ldr	r3, [r3, #8]
 8002670:	f003 0301 	and.w	r3, r3, #1
 8002674:	2b01      	cmp	r3, #1
 8002676:	d1d8      	bne.n	800262a <ADC_Enable+0x52>
 8002678:	2300      	movs	r3, #0
 800267a:	4618      	mov	r0, r3
 800267c:	3710      	adds	r7, #16
 800267e:	46bd      	mov	sp, r7
 8002680:	bd80      	pop	{r7, pc}
 8002682:	bf00      	nop
 8002684:	20000000 	.word	0x20000000
 8002688:	431bde83 	.word	0x431bde83

0800268c <ADC_ConversionStop_Disable>:
 800268c:	b580      	push	{r7, lr}
 800268e:	b084      	sub	sp, #16
 8002690:	af00      	add	r7, sp, #0
 8002692:	6078      	str	r0, [r7, #4]
 8002694:	2300      	movs	r3, #0
 8002696:	60fb      	str	r3, [r7, #12]
 8002698:	687b      	ldr	r3, [r7, #4]
 800269a:	681b      	ldr	r3, [r3, #0]
 800269c:	689b      	ldr	r3, [r3, #8]
 800269e:	f003 0301 	and.w	r3, r3, #1
 80026a2:	2b01      	cmp	r3, #1
 80026a4:	d12e      	bne.n	8002704 <ADC_ConversionStop_Disable+0x78>
 80026a6:	687b      	ldr	r3, [r7, #4]
 80026a8:	681b      	ldr	r3, [r3, #0]
 80026aa:	689a      	ldr	r2, [r3, #8]
 80026ac:	687b      	ldr	r3, [r7, #4]
 80026ae:	681b      	ldr	r3, [r3, #0]
 80026b0:	f022 0201 	bic.w	r2, r2, #1
 80026b4:	609a      	str	r2, [r3, #8]
 80026b6:	f7ff fc03 	bl	8001ec0 <HAL_GetTick>
 80026ba:	60f8      	str	r0, [r7, #12]
 80026bc:	e01b      	b.n	80026f6 <ADC_ConversionStop_Disable+0x6a>
 80026be:	f7ff fbff 	bl	8001ec0 <HAL_GetTick>
 80026c2:	4602      	mov	r2, r0
 80026c4:	68fb      	ldr	r3, [r7, #12]
 80026c6:	1ad3      	subs	r3, r2, r3
 80026c8:	2b02      	cmp	r3, #2
 80026ca:	d914      	bls.n	80026f6 <ADC_ConversionStop_Disable+0x6a>
 80026cc:	687b      	ldr	r3, [r7, #4]
 80026ce:	681b      	ldr	r3, [r3, #0]
 80026d0:	689b      	ldr	r3, [r3, #8]
 80026d2:	f003 0301 	and.w	r3, r3, #1
 80026d6:	2b01      	cmp	r3, #1
 80026d8:	d10d      	bne.n	80026f6 <ADC_ConversionStop_Disable+0x6a>
 80026da:	687b      	ldr	r3, [r7, #4]
 80026dc:	6a9b      	ldr	r3, [r3, #40]	; 0x28
 80026de:	f043 0210 	orr.w	r2, r3, #16
 80026e2:	687b      	ldr	r3, [r7, #4]
 80026e4:	629a      	str	r2, [r3, #40]	; 0x28
 80026e6:	687b      	ldr	r3, [r7, #4]
 80026e8:	6adb      	ldr	r3, [r3, #44]	; 0x2c
 80026ea:	f043 0201 	orr.w	r2, r3, #1
 80026ee:	687b      	ldr	r3, [r7, #4]
 80026f0:	62da      	str	r2, [r3, #44]	; 0x2c
 80026f2:	2301      	movs	r3, #1
 80026f4:	e007      	b.n	8002706 <ADC_ConversionStop_Disable+0x7a>
 80026f6:	687b      	ldr	r3, [r7, #4]
 80026f8:	681b      	ldr	r3, [r3, #0]
 80026fa:	689b      	ldr	r3, [r3, #8]
 80026fc:	f003 0301 	and.w	r3, r3, #1
 8002700:	2b01      	cmp	r3, #1
 8002702:	d0dc      	beq.n	80026be <ADC_ConversionStop_Disable+0x32>
 8002704:	2300      	movs	r3, #0
 8002706:	4618      	mov	r0, r3
 8002708:	3710      	adds	r7, #16
 800270a:	46bd      	mov	sp, r7
 800270c:	bd80      	pop	{r7, pc}

0800270e <HAL_ADCEx_InjectedConvCpltCallback>:
 800270e:	b480      	push	{r7}
 8002710:	b083      	sub	sp, #12
 8002712:	af00      	add	r7, sp, #0
 8002714:	6078      	str	r0, [r7, #4]
 8002716:	bf00      	nop
 8002718:	370c      	adds	r7, #12
 800271a:	46bd      	mov	sp, r7
 800271c:	bc80      	pop	{r7}
 800271e:	4770      	bx	lr

08002720 <__NVIC_SetPriorityGrouping>:
 8002720:	b480      	push	{r7}
 8002722:	b085      	sub	sp, #20
 8002724:	af00      	add	r7, sp, #0
 8002726:	6078      	str	r0, [r7, #4]
 8002728:	687b      	ldr	r3, [r7, #4]
 800272a:	f003 0307 	and.w	r3, r3, #7
 800272e:	60fb      	str	r3, [r7, #12]
 8002730:	4b0c      	ldr	r3, [pc, #48]	; (8002764 <__NVIC_SetPriorityGrouping+0x44>)
 8002732:	68db      	ldr	r3, [r3, #12]
 8002734:	60bb      	str	r3, [r7, #8]
 8002736:	68ba      	ldr	r2, [r7, #8]
 8002738:	f64f 03ff 	movw	r3, #63743	; 0xf8ff
 800273c:	4013      	ands	r3, r2
 800273e:	60bb      	str	r3, [r7, #8]
 8002740:	68fb      	ldr	r3, [r7, #12]
 8002742:	021a      	lsls	r2, r3, #8
 8002744:	68bb      	ldr	r3, [r7, #8]
 8002746:	4313      	orrs	r3, r2
 8002748:	f043 63bf 	orr.w	r3, r3, #100139008	; 0x5f80000
 800274c:	f443 3300 	orr.w	r3, r3, #131072	; 0x20000
 8002750:	60bb      	str	r3, [r7, #8]
 8002752:	4a04      	ldr	r2, [pc, #16]	; (8002764 <__NVIC_SetPriorityGrouping+0x44>)
 8002754:	68bb      	ldr	r3, [r7, #8]
 8002756:	60d3      	str	r3, [r2, #12]
 8002758:	bf00      	nop
 800275a:	3714      	adds	r7, #20
 800275c:	46bd      	mov	sp, r7
 800275e:	bc80      	pop	{r7}
 8002760:	4770      	bx	lr
 8002762:	bf00      	nop
 8002764:	e000ed00 	.word	0xe000ed00

08002768 <__NVIC_GetPriorityGrouping>:
 8002768:	b480      	push	{r7}
 800276a:	af00      	add	r7, sp, #0
 800276c:	4b04      	ldr	r3, [pc, #16]	; (8002780 <__NVIC_GetPriorityGrouping+0x18>)
 800276e:	68db      	ldr	r3, [r3, #12]
 8002770:	0a1b      	lsrs	r3, r3, #8
 8002772:	f003 0307 	and.w	r3, r3, #7
 8002776:	4618      	mov	r0, r3
 8002778:	46bd      	mov	sp, r7
 800277a:	bc80      	pop	{r7}
 800277c:	4770      	bx	lr
 800277e:	bf00      	nop
 8002780:	e000ed00 	.word	0xe000ed00

08002784 <__NVIC_EnableIRQ>:
 8002784:	b480      	push	{r7}
 8002786:	b083      	sub	sp, #12
 8002788:	af00      	add	r7, sp, #0
 800278a:	4603      	mov	r3, r0
 800278c:	71fb      	strb	r3, [r7, #7]
 800278e:	f997 3007 	ldrsb.w	r3, [r7, #7]
 8002792:	2b00      	cmp	r3, #0
 8002794:	db0b      	blt.n	80027ae <__NVIC_EnableIRQ+0x2a>
 8002796:	79fb      	ldrb	r3, [r7, #7]
 8002798:	f003 021f 	and.w	r2, r3, #31
 800279c:	4906      	ldr	r1, [pc, #24]	; (80027b8 <__NVIC_EnableIRQ+0x34>)
 800279e:	f997 3007 	ldrsb.w	r3, [r7, #7]
 80027a2:	095b      	lsrs	r3, r3, #5
 80027a4:	2001      	movs	r0, #1
 80027a6:	fa00 f202 	lsl.w	r2, r0, r2
 80027aa:	f841 2023 	str.w	r2, [r1, r3, lsl #2]
 80027ae:	bf00      	nop
 80027b0:	370c      	adds	r7, #12
 80027b2:	46bd      	mov	sp, r7
 80027b4:	bc80      	pop	{r7}
 80027b6:	4770      	bx	lr
 80027b8:	e000e100 	.word	0xe000e100

080027bc <__NVIC_SetPriority>:
 80027bc:	b480      	push	{r7}
 80027be:	b083      	sub	sp, #12
 80027c0:	af00      	add	r7, sp, #0
 80027c2:	4603      	mov	r3, r0
 80027c4:	6039      	str	r1, [r7, #0]
 80027c6:	71fb      	strb	r3, [r7, #7]
 80027c8:	f997 3007 	ldrsb.w	r3, [r7, #7]
 80027cc:	2b00      	cmp	r3, #0
 80027ce:	db0a      	blt.n	80027e6 <__NVIC_SetPriority+0x2a>
 80027d0:	683b      	ldr	r3, [r7, #0]
 80027d2:	b2da      	uxtb	r2, r3
 80027d4:	490c      	ldr	r1, [pc, #48]	; (8002808 <__NVIC_SetPriority+0x4c>)
 80027d6:	f997 3007 	ldrsb.w	r3, [r7, #7]
 80027da:	0112      	lsls	r2, r2, #4
 80027dc:	b2d2      	uxtb	r2, r2
 80027de:	440b      	add	r3, r1
 80027e0:	f883 2300 	strb.w	r2, [r3, #768]	; 0x300
 80027e4:	e00a      	b.n	80027fc <__NVIC_SetPriority+0x40>
 80027e6:	683b      	ldr	r3, [r7, #0]
 80027e8:	b2da      	uxtb	r2, r3
 80027ea:	4908      	ldr	r1, [pc, #32]	; (800280c <__NVIC_SetPriority+0x50>)
 80027ec:	79fb      	ldrb	r3, [r7, #7]
 80027ee:	f003 030f 	and.w	r3, r3, #15
 80027f2:	3b04      	subs	r3, #4
 80027f4:	0112      	lsls	r2, r2, #4
 80027f6:	b2d2      	uxtb	r2, r2
 80027f8:	440b      	add	r3, r1
 80027fa:	761a      	strb	r2, [r3, #24]
 80027fc:	bf00      	nop
 80027fe:	370c      	adds	r7, #12
 8002800:	46bd      	mov	sp, r7
 8002802:	bc80      	pop	{r7}
 8002804:	4770      	bx	lr
 8002806:	bf00      	nop
 8002808:	e000e100 	.word	0xe000e100
 800280c:	e000ed00 	.word	0xe000ed00

08002810 <NVIC_EncodePriority>:
 8002810:	b480      	push	{r7}
 8002812:	b089      	sub	sp, #36	; 0x24
 8002814:	af00      	add	r7, sp, #0
 8002816:	60f8      	str	r0, [r7, #12]
 8002818:	60b9      	str	r1, [r7, #8]
 800281a:	607a      	str	r2, [r7, #4]
 800281c:	68fb      	ldr	r3, [r7, #12]
 800281e:	f003 0307 	and.w	r3, r3, #7
 8002822:	61fb      	str	r3, [r7, #28]
 8002824:	69fb      	ldr	r3, [r7, #28]
 8002826:	f1c3 0307 	rsb	r3, r3, #7
 800282a:	2b04      	cmp	r3, #4
 800282c:	bf28      	it	cs
 800282e:	2304      	movcs	r3, #4
 8002830:	61bb      	str	r3, [r7, #24]
 8002832:	69fb      	ldr	r3, [r7, #28]
 8002834:	3304      	adds	r3, #4
 8002836:	2b06      	cmp	r3, #6
 8002838:	d902      	bls.n	8002840 <NVIC_EncodePriority+0x30>
 800283a:	69fb      	ldr	r3, [r7, #28]
 800283c:	3b03      	subs	r3, #3
 800283e:	e000      	b.n	8002842 <NVIC_EncodePriority+0x32>
 8002840:	2300      	movs	r3, #0
 8002842:	617b      	str	r3, [r7, #20]
 8002844:	f04f 32ff 	mov.w	r2, #4294967295
 8002848:	69bb      	ldr	r3, [r7, #24]
 800284a:	fa02 f303 	lsl.w	r3, r2, r3
 800284e:	43da      	mvns	r2, r3
 8002850:	68bb      	ldr	r3, [r7, #8]
 8002852:	401a      	ands	r2, r3
 8002854:	697b      	ldr	r3, [r7, #20]
 8002856:	409a      	lsls	r2, r3
 8002858:	f04f 31ff 	mov.w	r1, #4294967295
 800285c:	697b      	ldr	r3, [r7, #20]
 800285e:	fa01 f303 	lsl.w	r3, r1, r3
 8002862:	43d9      	mvns	r1, r3
 8002864:	687b      	ldr	r3, [r7, #4]
 8002866:	400b      	ands	r3, r1
 8002868:	4313      	orrs	r3, r2
 800286a:	4618      	mov	r0, r3
 800286c:	3724      	adds	r7, #36	; 0x24
 800286e:	46bd      	mov	sp, r7
 8002870:	bc80      	pop	{r7}
 8002872:	4770      	bx	lr

08002874 <SysTick_Config>:
 8002874:	b580      	push	{r7, lr}
 8002876:	b082      	sub	sp, #8
 8002878:	af00      	add	r7, sp, #0
 800287a:	6078      	str	r0, [r7, #4]
 800287c:	687b      	ldr	r3, [r7, #4]
 800287e:	3b01      	subs	r3, #1
 8002880:	f1b3 7f80 	cmp.w	r3, #16777216	; 0x1000000
 8002884:	d301      	bcc.n	800288a <SysTick_Config+0x16>
 8002886:	2301      	movs	r3, #1
 8002888:	e00f      	b.n	80028aa <SysTick_Config+0x36>
 800288a:	4a0a      	ldr	r2, [pc, #40]	; (80028b4 <SysTick_Config+0x40>)
 800288c:	687b      	ldr	r3, [r7, #4]
 800288e:	3b01      	subs	r3, #1
 8002890:	6053      	str	r3, [r2, #4]
 8002892:	210f      	movs	r1, #15
 8002894:	f04f 30ff 	mov.w	r0, #4294967295
 8002898:	f7ff ff90 	bl	80027bc <__NVIC_SetPriority>
 800289c:	4b05      	ldr	r3, [pc, #20]	; (80028b4 <SysTick_Config+0x40>)
 800289e:	2200      	movs	r2, #0
 80028a0:	609a      	str	r2, [r3, #8]
 80028a2:	4b04      	ldr	r3, [pc, #16]	; (80028b4 <SysTick_Config+0x40>)
 80028a4:	2207      	movs	r2, #7
 80028a6:	601a      	str	r2, [r3, #0]
 80028a8:	2300      	movs	r3, #0
 80028aa:	4618      	mov	r0, r3
 80028ac:	3708      	adds	r7, #8
 80028ae:	46bd      	mov	sp, r7
 80028b0:	bd80      	pop	{r7, pc}
 80028b2:	bf00      	nop
 80028b4:	e000e010 	.word	0xe000e010

080028b8 <HAL_NVIC_SetPriorityGrouping>:
 80028b8:	b580      	push	{r7, lr}
 80028ba:	b082      	sub	sp, #8
 80028bc:	af00      	add	r7, sp, #0
 80028be:	6078      	str	r0, [r7, #4]
 80028c0:	6878      	ldr	r0, [r7, #4]
 80028c2:	f7ff ff2d 	bl	8002720 <__NVIC_SetPriorityGrouping>
 80028c6:	bf00      	nop
 80028c8:	3708      	adds	r7, #8
 80028ca:	46bd      	mov	sp, r7
 80028cc:	bd80      	pop	{r7, pc}

080028ce <HAL_NVIC_SetPriority>:
 80028ce:	b580      	push	{r7, lr}
 80028d0:	b086      	sub	sp, #24
 80028d2:	af00      	add	r7, sp, #0
 80028d4:	4603      	mov	r3, r0
 80028d6:	60b9      	str	r1, [r7, #8]
 80028d8:	607a      	str	r2, [r7, #4]
 80028da:	73fb      	strb	r3, [r7, #15]
 80028dc:	2300      	movs	r3, #0
 80028de:	617b      	str	r3, [r7, #20]
 80028e0:	f7ff ff42 	bl	8002768 <__NVIC_GetPriorityGrouping>
 80028e4:	6178      	str	r0, [r7, #20]
 80028e6:	687a      	ldr	r2, [r7, #4]
 80028e8:	68b9      	ldr	r1, [r7, #8]
 80028ea:	6978      	ldr	r0, [r7, #20]
 80028ec:	f7ff ff90 	bl	8002810 <NVIC_EncodePriority>
 80028f0:	4602      	mov	r2, r0
 80028f2:	f997 300f 	ldrsb.w	r3, [r7, #15]
 80028f6:	4611      	mov	r1, r2
 80028f8:	4618      	mov	r0, r3
 80028fa:	f7ff ff5f 	bl	80027bc <__NVIC_SetPriority>
 80028fe:	bf00      	nop
 8002900:	3718      	adds	r7, #24
 8002902:	46bd      	mov	sp, r7
 8002904:	bd80      	pop	{r7, pc}

08002906 <HAL_NVIC_EnableIRQ>:
 8002906:	b580      	push	{r7, lr}
 8002908:	b082      	sub	sp, #8
 800290a:	af00      	add	r7, sp, #0
 800290c:	4603      	mov	r3, r0
 800290e:	71fb      	strb	r3, [r7, #7]
 8002910:	f997 3007 	ldrsb.w	r3, [r7, #7]
 8002914:	4618      	mov	r0, r3
 8002916:	f7ff ff35 	bl	8002784 <__NVIC_EnableIRQ>
 800291a:	bf00      	nop
 800291c:	3708      	adds	r7, #8
 800291e:	46bd      	mov	sp, r7
 8002920:	bd80      	pop	{r7, pc}

08002922 <HAL_SYSTICK_Config>:
 8002922:	b580      	push	{r7, lr}
 8002924:	b082      	sub	sp, #8
 8002926:	af00      	add	r7, sp, #0
 8002928:	6078      	str	r0, [r7, #4]
 800292a:	6878      	ldr	r0, [r7, #4]
 800292c:	f7ff ffa2 	bl	8002874 <SysTick_Config>
 8002930:	4603      	mov	r3, r0
 8002932:	4618      	mov	r0, r3
 8002934:	3708      	adds	r7, #8
 8002936:	46bd      	mov	sp, r7
 8002938:	bd80      	pop	{r7, pc}
	...

0800293c <HAL_FLASH_Program>:
 800293c:	b5f0      	push	{r4, r5, r6, r7, lr}
 800293e:	b087      	sub	sp, #28
 8002940:	af00      	add	r7, sp, #0
 8002942:	60f8      	str	r0, [r7, #12]
 8002944:	60b9      	str	r1, [r7, #8]
 8002946:	e9c7 2300 	strd	r2, r3, [r7]
 800294a:	2301      	movs	r3, #1
 800294c:	75fb      	strb	r3, [r7, #23]
 800294e:	2300      	movs	r3, #0
 8002950:	75bb      	strb	r3, [r7, #22]
 8002952:	2300      	movs	r3, #0
 8002954:	757b      	strb	r3, [r7, #21]
 8002956:	4b2f      	ldr	r3, [pc, #188]	; (8002a14 <HAL_FLASH_Program+0xd8>)
 8002958:	7e1b      	ldrb	r3, [r3, #24]
 800295a:	2b01      	cmp	r3, #1
 800295c:	d101      	bne.n	8002962 <HAL_FLASH_Program+0x26>
 800295e:	2302      	movs	r3, #2
 8002960:	e054      	b.n	8002a0c <HAL_FLASH_Program+0xd0>
 8002962:	4b2c      	ldr	r3, [pc, #176]	; (8002a14 <HAL_FLASH_Program+0xd8>)
 8002964:	2201      	movs	r2, #1
 8002966:	761a      	strb	r2, [r3, #24]
 8002968:	f24c 3050 	movw	r0, #50000	; 0xc350
 800296c:	f000 f8b2 	bl	8002ad4 <FLASH_WaitForLastOperation>
 8002970:	4603      	mov	r3, r0
 8002972:	75fb      	strb	r3, [r7, #23]
 8002974:	7dfb      	ldrb	r3, [r7, #23]
 8002976:	2b00      	cmp	r3, #0
 8002978:	d144      	bne.n	8002a04 <HAL_FLASH_Program+0xc8>
 800297a:	68fb      	ldr	r3, [r7, #12]
 800297c:	2b01      	cmp	r3, #1
 800297e:	d102      	bne.n	8002986 <HAL_FLASH_Program+0x4a>
 8002980:	2301      	movs	r3, #1
 8002982:	757b      	strb	r3, [r7, #21]
 8002984:	e007      	b.n	8002996 <HAL_FLASH_Program+0x5a>
 8002986:	68fb      	ldr	r3, [r7, #12]
 8002988:	2b02      	cmp	r3, #2
 800298a:	d102      	bne.n	8002992 <HAL_FLASH_Program+0x56>
 800298c:	2302      	movs	r3, #2
 800298e:	757b      	strb	r3, [r7, #21]
 8002990:	e001      	b.n	8002996 <HAL_FLASH_Program+0x5a>
 8002992:	2304      	movs	r3, #4
 8002994:	757b      	strb	r3, [r7, #21]
 8002996:	2300      	movs	r3, #0
 8002998:	75bb      	strb	r3, [r7, #22]
 800299a:	e02d      	b.n	80029f8 <HAL_FLASH_Program+0xbc>
 800299c:	7dbb      	ldrb	r3, [r7, #22]
 800299e:	005a      	lsls	r2, r3, #1
 80029a0:	68bb      	ldr	r3, [r7, #8]
 80029a2:	eb02 0c03 	add.w	ip, r2, r3
 80029a6:	7dbb      	ldrb	r3, [r7, #22]
 80029a8:	0119      	lsls	r1, r3, #4
 80029aa:	e9d7 2300 	ldrd	r2, r3, [r7]
 80029ae:	f1c1 0620 	rsb	r6, r1, #32
 80029b2:	f1a1 0020 	sub.w	r0, r1, #32
 80029b6:	fa22 f401 	lsr.w	r4, r2, r1
 80029ba:	fa03 f606 	lsl.w	r6, r3, r6
 80029be:	4334      	orrs	r4, r6
 80029c0:	fa23 f000 	lsr.w	r0, r3, r0
 80029c4:	4304      	orrs	r4, r0
 80029c6:	fa23 f501 	lsr.w	r5, r3, r1
 80029ca:	b2a3      	uxth	r3, r4
 80029cc:	4619      	mov	r1, r3
 80029ce:	4660      	mov	r0, ip
 80029d0:	f000 f864 	bl	8002a9c <FLASH_Program_HalfWord>
 80029d4:	f24c 3050 	movw	r0, #50000	; 0xc350
 80029d8:	f000 f87c 	bl	8002ad4 <FLASH_WaitForLastOperation>
 80029dc:	4603      	mov	r3, r0
 80029de:	75fb      	strb	r3, [r7, #23]
 80029e0:	4b0d      	ldr	r3, [pc, #52]	; (8002a18 <HAL_FLASH_Program+0xdc>)
 80029e2:	691b      	ldr	r3, [r3, #16]
 80029e4:	4a0c      	ldr	r2, [pc, #48]	; (8002a18 <HAL_FLASH_Program+0xdc>)
 80029e6:	f023 0301 	bic.w	r3, r3, #1
 80029ea:	6113      	str	r3, [r2, #16]
 80029ec:	7dfb      	ldrb	r3, [r7, #23]
 80029ee:	2b00      	cmp	r3, #0
 80029f0:	d107      	bne.n	8002a02 <HAL_FLASH_Program+0xc6>
 80029f2:	7dbb      	ldrb	r3, [r7, #22]
 80029f4:	3301      	adds	r3, #1
 80029f6:	75bb      	strb	r3, [r7, #22]
 80029f8:	7dba      	ldrb	r2, [r7, #22]
 80029fa:	7d7b      	ldrb	r3, [r7, #21]
 80029fc:	429a      	cmp	r2, r3
 80029fe:	d3cd      	bcc.n	800299c <HAL_FLASH_Program+0x60>
 8002a00:	e000      	b.n	8002a04 <HAL_FLASH_Program+0xc8>
 8002a02:	bf00      	nop
 8002a04:	4b03      	ldr	r3, [pc, #12]	; (8002a14 <HAL_FLASH_Program+0xd8>)
 8002a06:	2200      	movs	r2, #0
 8002a08:	761a      	strb	r2, [r3, #24]
 8002a0a:	7dfb      	ldrb	r3, [r7, #23]
 8002a0c:	4618      	mov	r0, r3
 8002a0e:	371c      	adds	r7, #28
 8002a10:	46bd      	mov	sp, r7
 8002a12:	bdf0      	pop	{r4, r5, r6, r7, pc}
 8002a14:	20000158 	.word	0x20000158
 8002a18:	40022000 	.word	0x40022000

08002a1c <HAL_FLASH_Unlock>:
 8002a1c:	b480      	push	{r7}
 8002a1e:	b083      	sub	sp, #12
 8002a20:	af00      	add	r7, sp, #0
 8002a22:	2300      	movs	r3, #0
 8002a24:	71fb      	strb	r3, [r7, #7]
 8002a26:	4b0d      	ldr	r3, [pc, #52]	; (8002a5c <HAL_FLASH_Unlock+0x40>)
 8002a28:	691b      	ldr	r3, [r3, #16]
 8002a2a:	f003 0380 	and.w	r3, r3, #128	; 0x80
 8002a2e:	2b00      	cmp	r3, #0
 8002a30:	d00d      	beq.n	8002a4e <HAL_FLASH_Unlock+0x32>
 8002a32:	4b0a      	ldr	r3, [pc, #40]	; (8002a5c <HAL_FLASH_Unlock+0x40>)
 8002a34:	4a0a      	ldr	r2, [pc, #40]	; (8002a60 <HAL_FLASH_Unlock+0x44>)
 8002a36:	605a      	str	r2, [r3, #4]
 8002a38:	4b08      	ldr	r3, [pc, #32]	; (8002a5c <HAL_FLASH_Unlock+0x40>)
 8002a3a:	4a0a      	ldr	r2, [pc, #40]	; (8002a64 <HAL_FLASH_Unlock+0x48>)
 8002a3c:	605a      	str	r2, [r3, #4]
 8002a3e:	4b07      	ldr	r3, [pc, #28]	; (8002a5c <HAL_FLASH_Unlock+0x40>)
 8002a40:	691b      	ldr	r3, [r3, #16]
 8002a42:	f003 0380 	and.w	r3, r3, #128	; 0x80
 8002a46:	2b00      	cmp	r3, #0
 8002a48:	d001      	beq.n	8002a4e <HAL_FLASH_Unlock+0x32>
 8002a4a:	2301      	movs	r3, #1
 8002a4c:	71fb      	strb	r3, [r7, #7]
 8002a4e:	79fb      	ldrb	r3, [r7, #7]
 8002a50:	4618      	mov	r0, r3
 8002a52:	370c      	adds	r7, #12
 8002a54:	46bd      	mov	sp, r7
 8002a56:	bc80      	pop	{r7}
 8002a58:	4770      	bx	lr
 8002a5a:	bf00      	nop
 8002a5c:	40022000 	.word	0x40022000
 8002a60:	45670123 	.word	0x45670123
 8002a64:	cdef89ab 	.word	0xcdef89ab

08002a68 <HAL_FLASH_Lock>:
 8002a68:	b480      	push	{r7}
 8002a6a:	af00      	add	r7, sp, #0
 8002a6c:	4b05      	ldr	r3, [pc, #20]	; (8002a84 <HAL_FLASH_Lock+0x1c>)
 8002a6e:	691b      	ldr	r3, [r3, #16]
 8002a70:	4a04      	ldr	r2, [pc, #16]	; (8002a84 <HAL_FLASH_Lock+0x1c>)
 8002a72:	f043 0380 	orr.w	r3, r3, #128	; 0x80
 8002a76:	6113      	str	r3, [r2, #16]
 8002a78:	2300      	movs	r3, #0
 8002a7a:	4618      	mov	r0, r3
 8002a7c:	46bd      	mov	sp, r7
 8002a7e:	bc80      	pop	{r7}
 8002a80:	4770      	bx	lr
 8002a82:	bf00      	nop
 8002a84:	40022000 	.word	0x40022000

08002a88 <HAL_FLASH_GetError>:
 8002a88:	b480      	push	{r7}
 8002a8a:	af00      	add	r7, sp, #0
 8002a8c:	4b02      	ldr	r3, [pc, #8]	; (8002a98 <HAL_FLASH_GetError+0x10>)
 8002a8e:	69db      	ldr	r3, [r3, #28]
 8002a90:	4618      	mov	r0, r3
 8002a92:	46bd      	mov	sp, r7
 8002a94:	bc80      	pop	{r7}
 8002a96:	4770      	bx	lr
 8002a98:	20000158 	.word	0x20000158

08002a9c <FLASH_Program_HalfWord>:
 8002a9c:	b480      	push	{r7}
 8002a9e:	b083      	sub	sp, #12
 8002aa0:	af00      	add	r7, sp, #0
 8002aa2:	6078      	str	r0, [r7, #4]
 8002aa4:	460b      	mov	r3, r1
 8002aa6:	807b      	strh	r3, [r7, #2]
 8002aa8:	4b08      	ldr	r3, [pc, #32]	; (8002acc <FLASH_Program_HalfWord+0x30>)
 8002aaa:	2200      	movs	r2, #0
 8002aac:	61da      	str	r2, [r3, #28]
 8002aae:	4b08      	ldr	r3, [pc, #32]	; (8002ad0 <FLASH_Program_HalfWord+0x34>)
 8002ab0:	691b      	ldr	r3, [r3, #16]
 8002ab2:	4a07      	ldr	r2, [pc, #28]	; (8002ad0 <FLASH_Program_HalfWord+0x34>)
 8002ab4:	f043 0301 	orr.w	r3, r3, #1
 8002ab8:	6113      	str	r3, [r2, #16]
 8002aba:	687b      	ldr	r3, [r7, #4]
 8002abc:	887a      	ldrh	r2, [r7, #2]
 8002abe:	801a      	strh	r2, [r3, #0]
 8002ac0:	bf00      	nop
 8002ac2:	370c      	adds	r7, #12
 8002ac4:	46bd      	mov	sp, r7
 8002ac6:	bc80      	pop	{r7}
 8002ac8:	4770      	bx	lr
 8002aca:	bf00      	nop
 8002acc:	20000158 	.word	0x20000158
 8002ad0:	40022000 	.word	0x40022000

08002ad4 <FLASH_WaitForLastOperation>:
 8002ad4:	b580      	push	{r7, lr}
 8002ad6:	b084      	sub	sp, #16
 8002ad8:	af00      	add	r7, sp, #0
 8002ada:	6078      	str	r0, [r7, #4]
 8002adc:	f7ff f9f0 	bl	8001ec0 <HAL_GetTick>
 8002ae0:	60f8      	str	r0, [r7, #12]
 8002ae2:	e010      	b.n	8002b06 <FLASH_WaitForLastOperation+0x32>
 8002ae4:	687b      	ldr	r3, [r7, #4]
 8002ae6:	f1b3 3fff 	cmp.w	r3, #4294967295
 8002aea:	d00c      	beq.n	8002b06 <FLASH_WaitForLastOperation+0x32>
 8002aec:	687b      	ldr	r3, [r7, #4]
 8002aee:	2b00      	cmp	r3, #0
 8002af0:	d007      	beq.n	8002b02 <FLASH_WaitForLastOperation+0x2e>
 8002af2:	f7ff f9e5 	bl	8001ec0 <HAL_GetTick>
 8002af6:	4602      	mov	r2, r0
 8002af8:	68fb      	ldr	r3, [r7, #12]
 8002afa:	1ad3      	subs	r3, r2, r3
 8002afc:	687a      	ldr	r2, [r7, #4]
 8002afe:	429a      	cmp	r2, r3
 8002b00:	d201      	bcs.n	8002b06 <FLASH_WaitForLastOperation+0x32>
 8002b02:	2303      	movs	r3, #3
 8002b04:	e025      	b.n	8002b52 <FLASH_WaitForLastOperation+0x7e>
 8002b06:	4b15      	ldr	r3, [pc, #84]	; (8002b5c <FLASH_WaitForLastOperation+0x88>)
 8002b08:	68db      	ldr	r3, [r3, #12]
 8002b0a:	f003 0301 	and.w	r3, r3, #1
 8002b0e:	2b00      	cmp	r3, #0
 8002b10:	d1e8      	bne.n	8002ae4 <FLASH_WaitForLastOperation+0x10>
 8002b12:	4b12      	ldr	r3, [pc, #72]	; (8002b5c <FLASH_WaitForLastOperation+0x88>)
 8002b14:	68db      	ldr	r3, [r3, #12]
 8002b16:	f003 0320 	and.w	r3, r3, #32
 8002b1a:	2b00      	cmp	r3, #0
 8002b1c:	d002      	beq.n	8002b24 <FLASH_WaitForLastOperation+0x50>
 8002b1e:	4b0f      	ldr	r3, [pc, #60]	; (8002b5c <FLASH_WaitForLastOperation+0x88>)
 8002b20:	2220      	movs	r2, #32
 8002b22:	60da      	str	r2, [r3, #12]
 8002b24:	4b0d      	ldr	r3, [pc, #52]	; (8002b5c <FLASH_WaitForLastOperation+0x88>)
 8002b26:	68db      	ldr	r3, [r3, #12]
 8002b28:	f003 0310 	and.w	r3, r3, #16
 8002b2c:	2b00      	cmp	r3, #0
 8002b2e:	d10b      	bne.n	8002b48 <FLASH_WaitForLastOperation+0x74>
 8002b30:	4b0a      	ldr	r3, [pc, #40]	; (8002b5c <FLASH_WaitForLastOperation+0x88>)
 8002b32:	69db      	ldr	r3, [r3, #28]
 8002b34:	f003 0301 	and.w	r3, r3, #1
 8002b38:	2b00      	cmp	r3, #0
 8002b3a:	d105      	bne.n	8002b48 <FLASH_WaitForLastOperation+0x74>
 8002b3c:	4b07      	ldr	r3, [pc, #28]	; (8002b5c <FLASH_WaitForLastOperation+0x88>)
 8002b3e:	68db      	ldr	r3, [r3, #12]
 8002b40:	f003 0304 	and.w	r3, r3, #4
 8002b44:	2b00      	cmp	r3, #0
 8002b46:	d003      	beq.n	8002b50 <FLASH_WaitForLastOperation+0x7c>
 8002b48:	f000 f80a 	bl	8002b60 <FLASH_SetErrorCode>
 8002b4c:	2301      	movs	r3, #1
 8002b4e:	e000      	b.n	8002b52 <FLASH_WaitForLastOperation+0x7e>
 8002b50:	2300      	movs	r3, #0
 8002b52:	4618      	mov	r0, r3
 8002b54:	3710      	adds	r7, #16
 8002b56:	46bd      	mov	sp, r7
 8002b58:	bd80      	pop	{r7, pc}
 8002b5a:	bf00      	nop
 8002b5c:	40022000 	.word	0x40022000

08002b60 <FLASH_SetErrorCode>:
 8002b60:	b480      	push	{r7}
 8002b62:	b083      	sub	sp, #12
 8002b64:	af00      	add	r7, sp, #0
 8002b66:	2300      	movs	r3, #0
 8002b68:	607b      	str	r3, [r7, #4]
 8002b6a:	4b23      	ldr	r3, [pc, #140]	; (8002bf8 <FLASH_SetErrorCode+0x98>)
 8002b6c:	68db      	ldr	r3, [r3, #12]
 8002b6e:	f003 0310 	and.w	r3, r3, #16
 8002b72:	2b00      	cmp	r3, #0
 8002b74:	d009      	beq.n	8002b8a <FLASH_SetErrorCode+0x2a>
 8002b76:	4b21      	ldr	r3, [pc, #132]	; (8002bfc <FLASH_SetErrorCode+0x9c>)
 8002b78:	69db      	ldr	r3, [r3, #28]
 8002b7a:	f043 0302 	orr.w	r3, r3, #2
 8002b7e:	4a1f      	ldr	r2, [pc, #124]	; (8002bfc <FLASH_SetErrorCode+0x9c>)
 8002b80:	61d3      	str	r3, [r2, #28]
 8002b82:	687b      	ldr	r3, [r7, #4]
 8002b84:	f043 0310 	orr.w	r3, r3, #16
 8002b88:	607b      	str	r3, [r7, #4]
 8002b8a:	4b1b      	ldr	r3, [pc, #108]	; (8002bf8 <FLASH_SetErrorCode+0x98>)
 8002b8c:	68db      	ldr	r3, [r3, #12]
 8002b8e:	f003 0304 	and.w	r3, r3, #4
 8002b92:	2b00      	cmp	r3, #0
 8002b94:	d009      	beq.n	8002baa <FLASH_SetErrorCode+0x4a>
 8002b96:	4b19      	ldr	r3, [pc, #100]	; (8002bfc <FLASH_SetErrorCode+0x9c>)
 8002b98:	69db      	ldr	r3, [r3, #28]
 8002b9a:	f043 0301 	orr.w	r3, r3, #1
 8002b9e:	4a17      	ldr	r2, [pc, #92]	; (8002bfc <FLASH_SetErrorCode+0x9c>)
 8002ba0:	61d3      	str	r3, [r2, #28]
 8002ba2:	687b      	ldr	r3, [r7, #4]
 8002ba4:	f043 0304 	orr.w	r3, r3, #4
 8002ba8:	607b      	str	r3, [r7, #4]
 8002baa:	4b13      	ldr	r3, [pc, #76]	; (8002bf8 <FLASH_SetErrorCode+0x98>)
 8002bac:	69db      	ldr	r3, [r3, #28]
 8002bae:	f003 0301 	and.w	r3, r3, #1
 8002bb2:	2b00      	cmp	r3, #0
 8002bb4:	d00b      	beq.n	8002bce <FLASH_SetErrorCode+0x6e>
 8002bb6:	4b11      	ldr	r3, [pc, #68]	; (8002bfc <FLASH_SetErrorCode+0x9c>)
 8002bb8:	69db      	ldr	r3, [r3, #28]
 8002bba:	f043 0304 	orr.w	r3, r3, #4
 8002bbe:	4a0f      	ldr	r2, [pc, #60]	; (8002bfc <FLASH_SetErrorCode+0x9c>)
 8002bc0:	61d3      	str	r3, [r2, #28]
 8002bc2:	4b0d      	ldr	r3, [pc, #52]	; (8002bf8 <FLASH_SetErrorCode+0x98>)
 8002bc4:	69db      	ldr	r3, [r3, #28]
 8002bc6:	4a0c      	ldr	r2, [pc, #48]	; (8002bf8 <FLASH_SetErrorCode+0x98>)
 8002bc8:	f023 0301 	bic.w	r3, r3, #1
 8002bcc:	61d3      	str	r3, [r2, #28]
 8002bce:	687b      	ldr	r3, [r7, #4]
 8002bd0:	f240 1201 	movw	r2, #257	; 0x101
 8002bd4:	4293      	cmp	r3, r2
 8002bd6:	d106      	bne.n	8002be6 <FLASH_SetErrorCode+0x86>
 8002bd8:	4b07      	ldr	r3, [pc, #28]	; (8002bf8 <FLASH_SetErrorCode+0x98>)
 8002bda:	69db      	ldr	r3, [r3, #28]
 8002bdc:	4a06      	ldr	r2, [pc, #24]	; (8002bf8 <FLASH_SetErrorCode+0x98>)
 8002bde:	f023 0301 	bic.w	r3, r3, #1
 8002be2:	61d3      	str	r3, [r2, #28]
 8002be4:	e002      	b.n	8002bec <FLASH_SetErrorCode+0x8c>
 8002be6:	4a04      	ldr	r2, [pc, #16]	; (8002bf8 <FLASH_SetErrorCode+0x98>)
 8002be8:	687b      	ldr	r3, [r7, #4]
 8002bea:	60d3      	str	r3, [r2, #12]
 8002bec:	bf00      	nop
 8002bee:	370c      	adds	r7, #12
 8002bf0:	46bd      	mov	sp, r7
 8002bf2:	bc80      	pop	{r7}
 8002bf4:	4770      	bx	lr
 8002bf6:	bf00      	nop
 8002bf8:	40022000 	.word	0x40022000
 8002bfc:	20000158 	.word	0x20000158

08002c00 <HAL_FLASHEx_Erase>:
 8002c00:	b580      	push	{r7, lr}
 8002c02:	b084      	sub	sp, #16
 8002c04:	af00      	add	r7, sp, #0
 8002c06:	6078      	str	r0, [r7, #4]
 8002c08:	6039      	str	r1, [r7, #0]
 8002c0a:	2301      	movs	r3, #1
 8002c0c:	73fb      	strb	r3, [r7, #15]
 8002c0e:	2300      	movs	r3, #0
 8002c10:	60bb      	str	r3, [r7, #8]
 8002c12:	4b2f      	ldr	r3, [pc, #188]	; (8002cd0 <HAL_FLASHEx_Erase+0xd0>)
 8002c14:	7e1b      	ldrb	r3, [r3, #24]
 8002c16:	2b01      	cmp	r3, #1
 8002c18:	d101      	bne.n	8002c1e <HAL_FLASHEx_Erase+0x1e>
 8002c1a:	2302      	movs	r3, #2
 8002c1c:	e053      	b.n	8002cc6 <HAL_FLASHEx_Erase+0xc6>
 8002c1e:	4b2c      	ldr	r3, [pc, #176]	; (8002cd0 <HAL_FLASHEx_Erase+0xd0>)
 8002c20:	2201      	movs	r2, #1
 8002c22:	761a      	strb	r2, [r3, #24]
 8002c24:	687b      	ldr	r3, [r7, #4]
 8002c26:	681b      	ldr	r3, [r3, #0]
 8002c28:	2b02      	cmp	r3, #2
 8002c2a:	d116      	bne.n	8002c5a <HAL_FLASHEx_Erase+0x5a>
 8002c2c:	f24c 3050 	movw	r0, #50000	; 0xc350
 8002c30:	f7ff ff50 	bl	8002ad4 <FLASH_WaitForLastOperation>
 8002c34:	4603      	mov	r3, r0
 8002c36:	2b00      	cmp	r3, #0
 8002c38:	d141      	bne.n	8002cbe <HAL_FLASHEx_Erase+0xbe>
 8002c3a:	2001      	movs	r0, #1
 8002c3c:	f000 f84c 	bl	8002cd8 <FLASH_MassErase>
 8002c40:	f24c 3050 	movw	r0, #50000	; 0xc350
 8002c44:	f7ff ff46 	bl	8002ad4 <FLASH_WaitForLastOperation>
 8002c48:	4603      	mov	r3, r0
 8002c4a:	73fb      	strb	r3, [r7, #15]
 8002c4c:	4b21      	ldr	r3, [pc, #132]	; (8002cd4 <HAL_FLASHEx_Erase+0xd4>)
 8002c4e:	691b      	ldr	r3, [r3, #16]
 8002c50:	4a20      	ldr	r2, [pc, #128]	; (8002cd4 <HAL_FLASHEx_Erase+0xd4>)
 8002c52:	f023 0304 	bic.w	r3, r3, #4
 8002c56:	6113      	str	r3, [r2, #16]
 8002c58:	e031      	b.n	8002cbe <HAL_FLASHEx_Erase+0xbe>
 8002c5a:	f24c 3050 	movw	r0, #50000	; 0xc350
 8002c5e:	f7ff ff39 	bl	8002ad4 <FLASH_WaitForLastOperation>
 8002c62:	4603      	mov	r3, r0
 8002c64:	2b00      	cmp	r3, #0
 8002c66:	d12a      	bne.n	8002cbe <HAL_FLASHEx_Erase+0xbe>
 8002c68:	683b      	ldr	r3, [r7, #0]
 8002c6a:	f04f 32ff 	mov.w	r2, #4294967295
 8002c6e:	601a      	str	r2, [r3, #0]
 8002c70:	687b      	ldr	r3, [r7, #4]
 8002c72:	689b      	ldr	r3, [r3, #8]
 8002c74:	60bb      	str	r3, [r7, #8]
 8002c76:	e019      	b.n	8002cac <HAL_FLASHEx_Erase+0xac>
 8002c78:	68b8      	ldr	r0, [r7, #8]
 8002c7a:	f000 f849 	bl	8002d10 <FLASH_PageErase>
 8002c7e:	f24c 3050 	movw	r0, #50000	; 0xc350
 8002c82:	f7ff ff27 	bl	8002ad4 <FLASH_WaitForLastOperation>
 8002c86:	4603      	mov	r3, r0
 8002c88:	73fb      	strb	r3, [r7, #15]
 8002c8a:	4b12      	ldr	r3, [pc, #72]	; (8002cd4 <HAL_FLASHEx_Erase+0xd4>)
 8002c8c:	691b      	ldr	r3, [r3, #16]
 8002c8e:	4a11      	ldr	r2, [pc, #68]	; (8002cd4 <HAL_FLASHEx_Erase+0xd4>)
 8002c90:	f023 0302 	bic.w	r3, r3, #2
 8002c94:	6113      	str	r3, [r2, #16]
 8002c96:	7bfb      	ldrb	r3, [r7, #15]
 8002c98:	2b00      	cmp	r3, #0
 8002c9a:	d003      	beq.n	8002ca4 <HAL_FLASHEx_Erase+0xa4>
 8002c9c:	683b      	ldr	r3, [r7, #0]
 8002c9e:	68ba      	ldr	r2, [r7, #8]
 8002ca0:	601a      	str	r2, [r3, #0]
 8002ca2:	e00c      	b.n	8002cbe <HAL_FLASHEx_Erase+0xbe>
 8002ca4:	68bb      	ldr	r3, [r7, #8]
 8002ca6:	f503 6380 	add.w	r3, r3, #1024	; 0x400
 8002caa:	60bb      	str	r3, [r7, #8]
 8002cac:	687b      	ldr	r3, [r7, #4]
 8002cae:	68db      	ldr	r3, [r3, #12]
 8002cb0:	029a      	lsls	r2, r3, #10
 8002cb2:	687b      	ldr	r3, [r7, #4]
 8002cb4:	689b      	ldr	r3, [r3, #8]
 8002cb6:	4413      	add	r3, r2
 8002cb8:	68ba      	ldr	r2, [r7, #8]
 8002cba:	429a      	cmp	r2, r3
 8002cbc:	d3dc      	bcc.n	8002c78 <HAL_FLASHEx_Erase+0x78>
 8002cbe:	4b04      	ldr	r3, [pc, #16]	; (8002cd0 <HAL_FLASHEx_Erase+0xd0>)
 8002cc0:	2200      	movs	r2, #0
 8002cc2:	761a      	strb	r2, [r3, #24]
 8002cc4:	7bfb      	ldrb	r3, [r7, #15]
 8002cc6:	4618      	mov	r0, r3
 8002cc8:	3710      	adds	r7, #16
 8002cca:	46bd      	mov	sp, r7
 8002ccc:	bd80      	pop	{r7, pc}
 8002cce:	bf00      	nop
 8002cd0:	20000158 	.word	0x20000158
 8002cd4:	40022000 	.word	0x40022000

08002cd8 <FLASH_MassErase>:
 8002cd8:	b480      	push	{r7}
 8002cda:	b083      	sub	sp, #12
 8002cdc:	af00      	add	r7, sp, #0
 8002cde:	6078      	str	r0, [r7, #4]
 8002ce0:	4b09      	ldr	r3, [pc, #36]	; (8002d08 <FLASH_MassErase+0x30>)
 8002ce2:	2200      	movs	r2, #0
 8002ce4:	61da      	str	r2, [r3, #28]
 8002ce6:	4b09      	ldr	r3, [pc, #36]	; (8002d0c <FLASH_MassErase+0x34>)
 8002ce8:	691b      	ldr	r3, [r3, #16]
 8002cea:	4a08      	ldr	r2, [pc, #32]	; (8002d0c <FLASH_MassErase+0x34>)
 8002cec:	f043 0304 	orr.w	r3, r3, #4
 8002cf0:	6113      	str	r3, [r2, #16]
 8002cf2:	4b06      	ldr	r3, [pc, #24]	; (8002d0c <FLASH_MassErase+0x34>)
 8002cf4:	691b      	ldr	r3, [r3, #16]
 8002cf6:	4a05      	ldr	r2, [pc, #20]	; (8002d0c <FLASH_MassErase+0x34>)
 8002cf8:	f043 0340 	orr.w	r3, r3, #64	; 0x40
 8002cfc:	6113      	str	r3, [r2, #16]
 8002cfe:	bf00      	nop
 8002d00:	370c      	adds	r7, #12
 8002d02:	46bd      	mov	sp, r7
 8002d04:	bc80      	pop	{r7}
 8002d06:	4770      	bx	lr
 8002d08:	20000158 	.word	0x20000158
 8002d0c:	40022000 	.word	0x40022000

08002d10 <FLASH_PageErase>:
 8002d10:	b480      	push	{r7}
 8002d12:	b083      	sub	sp, #12
 8002d14:	af00      	add	r7, sp, #0
 8002d16:	6078      	str	r0, [r7, #4]
 8002d18:	4b0b      	ldr	r3, [pc, #44]	; (8002d48 <FLASH_PageErase+0x38>)
 8002d1a:	2200      	movs	r2, #0
 8002d1c:	61da      	str	r2, [r3, #28]
 8002d1e:	4b0b      	ldr	r3, [pc, #44]	; (8002d4c <FLASH_PageErase+0x3c>)
 8002d20:	691b      	ldr	r3, [r3, #16]
 8002d22:	4a0a      	ldr	r2, [pc, #40]	; (8002d4c <FLASH_PageErase+0x3c>)
 8002d24:	f043 0302 	orr.w	r3, r3, #2
 8002d28:	6113      	str	r3, [r2, #16]
 8002d2a:	4a08      	ldr	r2, [pc, #32]	; (8002d4c <FLASH_PageErase+0x3c>)
 8002d2c:	687b      	ldr	r3, [r7, #4]
 8002d2e:	6153      	str	r3, [r2, #20]
 8002d30:	4b06      	ldr	r3, [pc, #24]	; (8002d4c <FLASH_PageErase+0x3c>)
 8002d32:	691b      	ldr	r3, [r3, #16]
 8002d34:	4a05      	ldr	r2, [pc, #20]	; (8002d4c <FLASH_PageErase+0x3c>)
 8002d36:	f043 0340 	orr.w	r3, r3, #64	; 0x40
 8002d3a:	6113      	str	r3, [r2, #16]
 8002d3c:	bf00      	nop
 8002d3e:	370c      	adds	r7, #12
 8002d40:	46bd      	mov	sp, r7
 8002d42:	bc80      	pop	{r7}
 8002d44:	4770      	bx	lr
 8002d46:	bf00      	nop
 8002d48:	20000158 	.word	0x20000158
 8002d4c:	40022000 	.word	0x40022000

08002d50 <HAL_GPIO_Init>:
 8002d50:	b480      	push	{r7}
 8002d52:	b08b      	sub	sp, #44	; 0x2c
 8002d54:	af00      	add	r7, sp, #0
 8002d56:	6078      	str	r0, [r7, #4]
 8002d58:	6039      	str	r1, [r7, #0]
 8002d5a:	2300      	movs	r3, #0
 8002d5c:	627b      	str	r3, [r7, #36]	; 0x24
 8002d5e:	2300      	movs	r3, #0
 8002d60:	623b      	str	r3, [r7, #32]
 8002d62:	e169      	b.n	8003038 <HAL_GPIO_Init+0x2e8>
 8002d64:	2201      	movs	r2, #1
 8002d66:	6a7b      	ldr	r3, [r7, #36]	; 0x24
 8002d68:	fa02 f303 	lsl.w	r3, r2, r3
 8002d6c:	61fb      	str	r3, [r7, #28]
 8002d6e:	683b      	ldr	r3, [r7, #0]
 8002d70:	681b      	ldr	r3, [r3, #0]
 8002d72:	69fa      	ldr	r2, [r7, #28]
 8002d74:	4013      	ands	r3, r2
 8002d76:	61bb      	str	r3, [r7, #24]
 8002d78:	69ba      	ldr	r2, [r7, #24]
 8002d7a:	69fb      	ldr	r3, [r7, #28]
 8002d7c:	429a      	cmp	r2, r3
 8002d7e:	f040 8158 	bne.w	8003032 <HAL_GPIO_Init+0x2e2>
 8002d82:	683b      	ldr	r3, [r7, #0]
 8002d84:	685b      	ldr	r3, [r3, #4]
 8002d86:	4a9a      	ldr	r2, [pc, #616]	; (8002ff0 <HAL_GPIO_Init+0x2a0>)
 8002d88:	4293      	cmp	r3, r2
 8002d8a:	d05e      	beq.n	8002e4a <HAL_GPIO_Init+0xfa>
 8002d8c:	4a98      	ldr	r2, [pc, #608]	; (8002ff0 <HAL_GPIO_Init+0x2a0>)
 8002d8e:	4293      	cmp	r3, r2
 8002d90:	d875      	bhi.n	8002e7e <HAL_GPIO_Init+0x12e>
 8002d92:	4a98      	ldr	r2, [pc, #608]	; (8002ff4 <HAL_GPIO_Init+0x2a4>)
 8002d94:	4293      	cmp	r3, r2
 8002d96:	d058      	beq.n	8002e4a <HAL_GPIO_Init+0xfa>
 8002d98:	4a96      	ldr	r2, [pc, #600]	; (8002ff4 <HAL_GPIO_Init+0x2a4>)
 8002d9a:	4293      	cmp	r3, r2
 8002d9c:	d86f      	bhi.n	8002e7e <HAL_GPIO_Init+0x12e>
 8002d9e:	4a96      	ldr	r2, [pc, #600]	; (8002ff8 <HAL_GPIO_Init+0x2a8>)
 8002da0:	4293      	cmp	r3, r2
 8002da2:	d052      	beq.n	8002e4a <HAL_GPIO_Init+0xfa>
 8002da4:	4a94      	ldr	r2, [pc, #592]	; (8002ff8 <HAL_GPIO_Init+0x2a8>)
 8002da6:	4293      	cmp	r3, r2
 8002da8:	d869      	bhi.n	8002e7e <HAL_GPIO_Init+0x12e>
 8002daa:	4a94      	ldr	r2, [pc, #592]	; (8002ffc <HAL_GPIO_Init+0x2ac>)
 8002dac:	4293      	cmp	r3, r2
 8002dae:	d04c      	beq.n	8002e4a <HAL_GPIO_Init+0xfa>
 8002db0:	4a92      	ldr	r2, [pc, #584]	; (8002ffc <HAL_GPIO_Init+0x2ac>)
 8002db2:	4293      	cmp	r3, r2
 8002db4:	d863      	bhi.n	8002e7e <HAL_GPIO_Init+0x12e>
 8002db6:	4a92      	ldr	r2, [pc, #584]	; (8003000 <HAL_GPIO_Init+0x2b0>)
 8002db8:	4293      	cmp	r3, r2
 8002dba:	d046      	beq.n	8002e4a <HAL_GPIO_Init+0xfa>
 8002dbc:	4a90      	ldr	r2, [pc, #576]	; (8003000 <HAL_GPIO_Init+0x2b0>)
 8002dbe:	4293      	cmp	r3, r2
 8002dc0:	d85d      	bhi.n	8002e7e <HAL_GPIO_Init+0x12e>
 8002dc2:	2b12      	cmp	r3, #18
 8002dc4:	d82a      	bhi.n	8002e1c <HAL_GPIO_Init+0xcc>
 8002dc6:	2b12      	cmp	r3, #18
 8002dc8:	d859      	bhi.n	8002e7e <HAL_GPIO_Init+0x12e>
 8002dca:	a201      	add	r2, pc, #4	; (adr r2, 8002dd0 <HAL_GPIO_Init+0x80>)
 8002dcc:	f852 f023 	ldr.w	pc, [r2, r3, lsl #2]
 8002dd0:	08002e4b 	.word	0x08002e4b
 8002dd4:	08002e25 	.word	0x08002e25
 8002dd8:	08002e37 	.word	0x08002e37
 8002ddc:	08002e79 	.word	0x08002e79
 8002de0:	08002e7f 	.word	0x08002e7f
 8002de4:	08002e7f 	.word	0x08002e7f
 8002de8:	08002e7f 	.word	0x08002e7f
 8002dec:	08002e7f 	.word	0x08002e7f
 8002df0:	08002e7f 	.word	0x08002e7f
 8002df4:	08002e7f 	.word	0x08002e7f
 8002df8:	08002e7f 	.word	0x08002e7f
 8002dfc:	08002e7f 	.word	0x08002e7f
 8002e00:	08002e7f 	.word	0x08002e7f
 8002e04:	08002e7f 	.word	0x08002e7f
 8002e08:	08002e7f 	.word	0x08002e7f
 8002e0c:	08002e7f 	.word	0x08002e7f
 8002e10:	08002e7f 	.word	0x08002e7f
 8002e14:	08002e2d 	.word	0x08002e2d
 8002e18:	08002e41 	.word	0x08002e41
 8002e1c:	4a79      	ldr	r2, [pc, #484]	; (8003004 <HAL_GPIO_Init+0x2b4>)
 8002e1e:	4293      	cmp	r3, r2
 8002e20:	d013      	beq.n	8002e4a <HAL_GPIO_Init+0xfa>
 8002e22:	e02c      	b.n	8002e7e <HAL_GPIO_Init+0x12e>
 8002e24:	683b      	ldr	r3, [r7, #0]
 8002e26:	68db      	ldr	r3, [r3, #12]
 8002e28:	623b      	str	r3, [r7, #32]
 8002e2a:	e029      	b.n	8002e80 <HAL_GPIO_Init+0x130>
 8002e2c:	683b      	ldr	r3, [r7, #0]
 8002e2e:	68db      	ldr	r3, [r3, #12]
 8002e30:	3304      	adds	r3, #4
 8002e32:	623b      	str	r3, [r7, #32]
 8002e34:	e024      	b.n	8002e80 <HAL_GPIO_Init+0x130>
 8002e36:	683b      	ldr	r3, [r7, #0]
 8002e38:	68db      	ldr	r3, [r3, #12]
 8002e3a:	3308      	adds	r3, #8
 8002e3c:	623b      	str	r3, [r7, #32]
 8002e3e:	e01f      	b.n	8002e80 <HAL_GPIO_Init+0x130>
 8002e40:	683b      	ldr	r3, [r7, #0]
 8002e42:	68db      	ldr	r3, [r3, #12]
 8002e44:	330c      	adds	r3, #12
 8002e46:	623b      	str	r3, [r7, #32]
 8002e48:	e01a      	b.n	8002e80 <HAL_GPIO_Init+0x130>
 8002e4a:	683b      	ldr	r3, [r7, #0]
 8002e4c:	689b      	ldr	r3, [r3, #8]
 8002e4e:	2b00      	cmp	r3, #0
 8002e50:	d102      	bne.n	8002e58 <HAL_GPIO_Init+0x108>
 8002e52:	2304      	movs	r3, #4
 8002e54:	623b      	str	r3, [r7, #32]
 8002e56:	e013      	b.n	8002e80 <HAL_GPIO_Init+0x130>
 8002e58:	683b      	ldr	r3, [r7, #0]
 8002e5a:	689b      	ldr	r3, [r3, #8]
 8002e5c:	2b01      	cmp	r3, #1
 8002e5e:	d105      	bne.n	8002e6c <HAL_GPIO_Init+0x11c>
 8002e60:	2308      	movs	r3, #8
 8002e62:	623b      	str	r3, [r7, #32]
 8002e64:	687b      	ldr	r3, [r7, #4]
 8002e66:	69fa      	ldr	r2, [r7, #28]
 8002e68:	611a      	str	r2, [r3, #16]
 8002e6a:	e009      	b.n	8002e80 <HAL_GPIO_Init+0x130>
 8002e6c:	2308      	movs	r3, #8
 8002e6e:	623b      	str	r3, [r7, #32]
 8002e70:	687b      	ldr	r3, [r7, #4]
 8002e72:	69fa      	ldr	r2, [r7, #28]
 8002e74:	615a      	str	r2, [r3, #20]
 8002e76:	e003      	b.n	8002e80 <HAL_GPIO_Init+0x130>
 8002e78:	2300      	movs	r3, #0
 8002e7a:	623b      	str	r3, [r7, #32]
 8002e7c:	e000      	b.n	8002e80 <HAL_GPIO_Init+0x130>
 8002e7e:	bf00      	nop
 8002e80:	69bb      	ldr	r3, [r7, #24]
 8002e82:	2bff      	cmp	r3, #255	; 0xff
 8002e84:	d801      	bhi.n	8002e8a <HAL_GPIO_Init+0x13a>
 8002e86:	687b      	ldr	r3, [r7, #4]
 8002e88:	e001      	b.n	8002e8e <HAL_GPIO_Init+0x13e>
 8002e8a:	687b      	ldr	r3, [r7, #4]
 8002e8c:	3304      	adds	r3, #4
 8002e8e:	617b      	str	r3, [r7, #20]
 8002e90:	69bb      	ldr	r3, [r7, #24]
 8002e92:	2bff      	cmp	r3, #255	; 0xff
 8002e94:	d802      	bhi.n	8002e9c <HAL_GPIO_Init+0x14c>
 8002e96:	6a7b      	ldr	r3, [r7, #36]	; 0x24
 8002e98:	009b      	lsls	r3, r3, #2
 8002e9a:	e002      	b.n	8002ea2 <HAL_GPIO_Init+0x152>
 8002e9c:	6a7b      	ldr	r3, [r7, #36]	; 0x24
 8002e9e:	3b08      	subs	r3, #8
 8002ea0:	009b      	lsls	r3, r3, #2
 8002ea2:	613b      	str	r3, [r7, #16]
 8002ea4:	697b      	ldr	r3, [r7, #20]
 8002ea6:	681a      	ldr	r2, [r3, #0]
 8002ea8:	210f      	movs	r1, #15
 8002eaa:	693b      	ldr	r3, [r7, #16]
 8002eac:	fa01 f303 	lsl.w	r3, r1, r3
 8002eb0:	43db      	mvns	r3, r3
 8002eb2:	401a      	ands	r2, r3
 8002eb4:	6a39      	ldr	r1, [r7, #32]
 8002eb6:	693b      	ldr	r3, [r7, #16]
 8002eb8:	fa01 f303 	lsl.w	r3, r1, r3
 8002ebc:	431a      	orrs	r2, r3
 8002ebe:	697b      	ldr	r3, [r7, #20]
 8002ec0:	601a      	str	r2, [r3, #0]
 8002ec2:	683b      	ldr	r3, [r7, #0]
 8002ec4:	685b      	ldr	r3, [r3, #4]
 8002ec6:	f003 5380 	and.w	r3, r3, #268435456	; 0x10000000
 8002eca:	2b00      	cmp	r3, #0
 8002ecc:	f000 80b1 	beq.w	8003032 <HAL_GPIO_Init+0x2e2>
 8002ed0:	4b4d      	ldr	r3, [pc, #308]	; (8003008 <HAL_GPIO_Init+0x2b8>)
 8002ed2:	699b      	ldr	r3, [r3, #24]
 8002ed4:	4a4c      	ldr	r2, [pc, #304]	; (8003008 <HAL_GPIO_Init+0x2b8>)
 8002ed6:	f043 0301 	orr.w	r3, r3, #1
 8002eda:	6193      	str	r3, [r2, #24]
 8002edc:	4b4a      	ldr	r3, [pc, #296]	; (8003008 <HAL_GPIO_Init+0x2b8>)
 8002ede:	699b      	ldr	r3, [r3, #24]
 8002ee0:	f003 0301 	and.w	r3, r3, #1
 8002ee4:	60bb      	str	r3, [r7, #8]
 8002ee6:	68bb      	ldr	r3, [r7, #8]
 8002ee8:	4a48      	ldr	r2, [pc, #288]	; (800300c <HAL_GPIO_Init+0x2bc>)
 8002eea:	6a7b      	ldr	r3, [r7, #36]	; 0x24
 8002eec:	089b      	lsrs	r3, r3, #2
 8002eee:	3302      	adds	r3, #2
 8002ef0:	f852 3023 	ldr.w	r3, [r2, r3, lsl #2]
 8002ef4:	60fb      	str	r3, [r7, #12]
 8002ef6:	6a7b      	ldr	r3, [r7, #36]	; 0x24
 8002ef8:	f003 0303 	and.w	r3, r3, #3
 8002efc:	009b      	lsls	r3, r3, #2
 8002efe:	220f      	movs	r2, #15
 8002f00:	fa02 f303 	lsl.w	r3, r2, r3
 8002f04:	43db      	mvns	r3, r3
 8002f06:	68fa      	ldr	r2, [r7, #12]
 8002f08:	4013      	ands	r3, r2
 8002f0a:	60fb      	str	r3, [r7, #12]
 8002f0c:	687b      	ldr	r3, [r7, #4]
 8002f0e:	4a40      	ldr	r2, [pc, #256]	; (8003010 <HAL_GPIO_Init+0x2c0>)
 8002f10:	4293      	cmp	r3, r2
 8002f12:	d013      	beq.n	8002f3c <HAL_GPIO_Init+0x1ec>
 8002f14:	687b      	ldr	r3, [r7, #4]
 8002f16:	4a3f      	ldr	r2, [pc, #252]	; (8003014 <HAL_GPIO_Init+0x2c4>)
 8002f18:	4293      	cmp	r3, r2
 8002f1a:	d00d      	beq.n	8002f38 <HAL_GPIO_Init+0x1e8>
 8002f1c:	687b      	ldr	r3, [r7, #4]
 8002f1e:	4a3e      	ldr	r2, [pc, #248]	; (8003018 <HAL_GPIO_Init+0x2c8>)
 8002f20:	4293      	cmp	r3, r2
 8002f22:	d007      	beq.n	8002f34 <HAL_GPIO_Init+0x1e4>
 8002f24:	687b      	ldr	r3, [r7, #4]
 8002f26:	4a3d      	ldr	r2, [pc, #244]	; (800301c <HAL_GPIO_Init+0x2cc>)
 8002f28:	4293      	cmp	r3, r2
 8002f2a:	d101      	bne.n	8002f30 <HAL_GPIO_Init+0x1e0>
 8002f2c:	2303      	movs	r3, #3
 8002f2e:	e006      	b.n	8002f3e <HAL_GPIO_Init+0x1ee>
 8002f30:	2304      	movs	r3, #4
 8002f32:	e004      	b.n	8002f3e <HAL_GPIO_Init+0x1ee>
 8002f34:	2302      	movs	r3, #2
 8002f36:	e002      	b.n	8002f3e <HAL_GPIO_Init+0x1ee>
 8002f38:	2301      	movs	r3, #1
 8002f3a:	e000      	b.n	8002f3e <HAL_GPIO_Init+0x1ee>
 8002f3c:	2300      	movs	r3, #0
 8002f3e:	6a7a      	ldr	r2, [r7, #36]	; 0x24
 8002f40:	f002 0203 	and.w	r2, r2, #3
 8002f44:	0092      	lsls	r2, r2, #2
 8002f46:	4093      	lsls	r3, r2
 8002f48:	68fa      	ldr	r2, [r7, #12]
 8002f4a:	4313      	orrs	r3, r2
 8002f4c:	60fb      	str	r3, [r7, #12]
 8002f4e:	492f      	ldr	r1, [pc, #188]	; (800300c <HAL_GPIO_Init+0x2bc>)
 8002f50:	6a7b      	ldr	r3, [r7, #36]	; 0x24
 8002f52:	089b      	lsrs	r3, r3, #2
 8002f54:	3302      	adds	r3, #2
 8002f56:	68fa      	ldr	r2, [r7, #12]
 8002f58:	f841 2023 	str.w	r2, [r1, r3, lsl #2]
 8002f5c:	683b      	ldr	r3, [r7, #0]
 8002f5e:	685b      	ldr	r3, [r3, #4]
 8002f60:	f403 3380 	and.w	r3, r3, #65536	; 0x10000
 8002f64:	2b00      	cmp	r3, #0
 8002f66:	d006      	beq.n	8002f76 <HAL_GPIO_Init+0x226>
 8002f68:	4b2d      	ldr	r3, [pc, #180]	; (8003020 <HAL_GPIO_Init+0x2d0>)
 8002f6a:	681a      	ldr	r2, [r3, #0]
 8002f6c:	492c      	ldr	r1, [pc, #176]	; (8003020 <HAL_GPIO_Init+0x2d0>)
 8002f6e:	69bb      	ldr	r3, [r7, #24]
 8002f70:	4313      	orrs	r3, r2
 8002f72:	600b      	str	r3, [r1, #0]
 8002f74:	e006      	b.n	8002f84 <HAL_GPIO_Init+0x234>
 8002f76:	4b2a      	ldr	r3, [pc, #168]	; (8003020 <HAL_GPIO_Init+0x2d0>)
 8002f78:	681a      	ldr	r2, [r3, #0]
 8002f7a:	69bb      	ldr	r3, [r7, #24]
 8002f7c:	43db      	mvns	r3, r3
 8002f7e:	4928      	ldr	r1, [pc, #160]	; (8003020 <HAL_GPIO_Init+0x2d0>)
 8002f80:	4013      	ands	r3, r2
 8002f82:	600b      	str	r3, [r1, #0]
 8002f84:	683b      	ldr	r3, [r7, #0]
 8002f86:	685b      	ldr	r3, [r3, #4]
 8002f88:	f403 3300 	and.w	r3, r3, #131072	; 0x20000
 8002f8c:	2b00      	cmp	r3, #0
 8002f8e:	d006      	beq.n	8002f9e <HAL_GPIO_Init+0x24e>
 8002f90:	4b23      	ldr	r3, [pc, #140]	; (8003020 <HAL_GPIO_Init+0x2d0>)
 8002f92:	685a      	ldr	r2, [r3, #4]
 8002f94:	4922      	ldr	r1, [pc, #136]	; (8003020 <HAL_GPIO_Init+0x2d0>)
 8002f96:	69bb      	ldr	r3, [r7, #24]
 8002f98:	4313      	orrs	r3, r2
 8002f9a:	604b      	str	r3, [r1, #4]
 8002f9c:	e006      	b.n	8002fac <HAL_GPIO_Init+0x25c>
 8002f9e:	4b20      	ldr	r3, [pc, #128]	; (8003020 <HAL_GPIO_Init+0x2d0>)
 8002fa0:	685a      	ldr	r2, [r3, #4]
 8002fa2:	69bb      	ldr	r3, [r7, #24]
 8002fa4:	43db      	mvns	r3, r3
 8002fa6:	491e      	ldr	r1, [pc, #120]	; (8003020 <HAL_GPIO_Init+0x2d0>)
 8002fa8:	4013      	ands	r3, r2
 8002faa:	604b      	str	r3, [r1, #4]
 8002fac:	683b      	ldr	r3, [r7, #0]
 8002fae:	685b      	ldr	r3, [r3, #4]
 8002fb0:	f403 1380 	and.w	r3, r3, #1048576	; 0x100000
 8002fb4:	2b00      	cmp	r3, #0
 8002fb6:	d006      	beq.n	8002fc6 <HAL_GPIO_Init+0x276>
 8002fb8:	4b19      	ldr	r3, [pc, #100]	; (8003020 <HAL_GPIO_Init+0x2d0>)
 8002fba:	689a      	ldr	r2, [r3, #8]
 8002fbc:	4918      	ldr	r1, [pc, #96]	; (8003020 <HAL_GPIO_Init+0x2d0>)
 8002fbe:	69bb      	ldr	r3, [r7, #24]
 8002fc0:	4313      	orrs	r3, r2
 8002fc2:	608b      	str	r3, [r1, #8]
 8002fc4:	e006      	b.n	8002fd4 <HAL_GPIO_Init+0x284>
 8002fc6:	4b16      	ldr	r3, [pc, #88]	; (8003020 <HAL_GPIO_Init+0x2d0>)
 8002fc8:	689a      	ldr	r2, [r3, #8]
 8002fca:	69bb      	ldr	r3, [r7, #24]
 8002fcc:	43db      	mvns	r3, r3
 8002fce:	4914      	ldr	r1, [pc, #80]	; (8003020 <HAL_GPIO_Init+0x2d0>)
 8002fd0:	4013      	ands	r3, r2
 8002fd2:	608b      	str	r3, [r1, #8]
 8002fd4:	683b      	ldr	r3, [r7, #0]
 8002fd6:	685b      	ldr	r3, [r3, #4]
 8002fd8:	f403 1300 	and.w	r3, r3, #2097152	; 0x200000
 8002fdc:	2b00      	cmp	r3, #0
 8002fde:	d021      	beq.n	8003024 <HAL_GPIO_Init+0x2d4>
 8002fe0:	4b0f      	ldr	r3, [pc, #60]	; (8003020 <HAL_GPIO_Init+0x2d0>)
 8002fe2:	68da      	ldr	r2, [r3, #12]
 8002fe4:	490e      	ldr	r1, [pc, #56]	; (8003020 <HAL_GPIO_Init+0x2d0>)
 8002fe6:	69bb      	ldr	r3, [r7, #24]
 8002fe8:	4313      	orrs	r3, r2
 8002fea:	60cb      	str	r3, [r1, #12]
 8002fec:	e021      	b.n	8003032 <HAL_GPIO_Init+0x2e2>
 8002fee:	bf00      	nop
 8002ff0:	10320000 	.word	0x10320000
 8002ff4:	10310000 	.word	0x10310000
 8002ff8:	10220000 	.word	0x10220000
 8002ffc:	10210000 	.word	0x10210000
 8003000:	10120000 	.word	0x10120000
 8003004:	10110000 	.word	0x10110000
 8003008:	40021000 	.word	0x40021000
 800300c:	40010000 	.word	0x40010000
 8003010:	40010800 	.word	0x40010800
 8003014:	40010c00 	.word	0x40010c00
 8003018:	40011000 	.word	0x40011000
 800301c:	40011400 	.word	0x40011400
 8003020:	40010400 	.word	0x40010400
 8003024:	4b0b      	ldr	r3, [pc, #44]	; (8003054 <HAL_GPIO_Init+0x304>)
 8003026:	68da      	ldr	r2, [r3, #12]
 8003028:	69bb      	ldr	r3, [r7, #24]
 800302a:	43db      	mvns	r3, r3
 800302c:	4909      	ldr	r1, [pc, #36]	; (8003054 <HAL_GPIO_Init+0x304>)
 800302e:	4013      	ands	r3, r2
 8003030:	60cb      	str	r3, [r1, #12]
 8003032:	6a7b      	ldr	r3, [r7, #36]	; 0x24
 8003034:	3301      	adds	r3, #1
 8003036:	627b      	str	r3, [r7, #36]	; 0x24
 8003038:	683b      	ldr	r3, [r7, #0]
 800303a:	681a      	ldr	r2, [r3, #0]
 800303c:	6a7b      	ldr	r3, [r7, #36]	; 0x24
 800303e:	fa22 f303 	lsr.w	r3, r2, r3
 8003042:	2b00      	cmp	r3, #0
 8003044:	f47f ae8e 	bne.w	8002d64 <HAL_GPIO_Init+0x14>
 8003048:	bf00      	nop
 800304a:	bf00      	nop
 800304c:	372c      	adds	r7, #44	; 0x2c
 800304e:	46bd      	mov	sp, r7
 8003050:	bc80      	pop	{r7}
 8003052:	4770      	bx	lr
 8003054:	40010400 	.word	0x40010400

08003058 <HAL_GPIO_ReadPin>:
 8003058:	b480      	push	{r7}
 800305a:	b085      	sub	sp, #20
 800305c:	af00      	add	r7, sp, #0
 800305e:	6078      	str	r0, [r7, #4]
 8003060:	460b      	mov	r3, r1
 8003062:	807b      	strh	r3, [r7, #2]
 8003064:	687b      	ldr	r3, [r7, #4]
 8003066:	689a      	ldr	r2, [r3, #8]
 8003068:	887b      	ldrh	r3, [r7, #2]
 800306a:	4013      	ands	r3, r2
 800306c:	2b00      	cmp	r3, #0
 800306e:	d002      	beq.n	8003076 <HAL_GPIO_ReadPin+0x1e>
 8003070:	2301      	movs	r3, #1
 8003072:	73fb      	strb	r3, [r7, #15]
 8003074:	e001      	b.n	800307a <HAL_GPIO_ReadPin+0x22>
 8003076:	2300      	movs	r3, #0
 8003078:	73fb      	strb	r3, [r7, #15]
 800307a:	7bfb      	ldrb	r3, [r7, #15]
 800307c:	4618      	mov	r0, r3
 800307e:	3714      	adds	r7, #20
 8003080:	46bd      	mov	sp, r7
 8003082:	bc80      	pop	{r7}
 8003084:	4770      	bx	lr

08003086 <HAL_GPIO_WritePin>:
 8003086:	b480      	push	{r7}
 8003088:	b083      	sub	sp, #12
 800308a:	af00      	add	r7, sp, #0
 800308c:	6078      	str	r0, [r7, #4]
 800308e:	460b      	mov	r3, r1
 8003090:	807b      	strh	r3, [r7, #2]
 8003092:	4613      	mov	r3, r2
 8003094:	707b      	strb	r3, [r7, #1]
 8003096:	787b      	ldrb	r3, [r7, #1]
 8003098:	2b00      	cmp	r3, #0
 800309a:	d003      	beq.n	80030a4 <HAL_GPIO_WritePin+0x1e>
 800309c:	887a      	ldrh	r2, [r7, #2]
 800309e:	687b      	ldr	r3, [r7, #4]
 80030a0:	611a      	str	r2, [r3, #16]
 80030a2:	e003      	b.n	80030ac <HAL_GPIO_WritePin+0x26>
 80030a4:	887b      	ldrh	r3, [r7, #2]
 80030a6:	041a      	lsls	r2, r3, #16
 80030a8:	687b      	ldr	r3, [r7, #4]
 80030aa:	611a      	str	r2, [r3, #16]
 80030ac:	bf00      	nop
 80030ae:	370c      	adds	r7, #12
 80030b0:	46bd      	mov	sp, r7
 80030b2:	bc80      	pop	{r7}
 80030b4:	4770      	bx	lr
	...

080030b8 <HAL_RCC_OscConfig>:
 80030b8:	b580      	push	{r7, lr}
 80030ba:	b086      	sub	sp, #24
 80030bc:	af00      	add	r7, sp, #0
 80030be:	6078      	str	r0, [r7, #4]
 80030c0:	687b      	ldr	r3, [r7, #4]
 80030c2:	2b00      	cmp	r3, #0
 80030c4:	d101      	bne.n	80030ca <HAL_RCC_OscConfig+0x12>
 80030c6:	2301      	movs	r3, #1
 80030c8:	e26c      	b.n	80035a4 <HAL_RCC_OscConfig+0x4ec>
 80030ca:	687b      	ldr	r3, [r7, #4]
 80030cc:	681b      	ldr	r3, [r3, #0]
 80030ce:	f003 0301 	and.w	r3, r3, #1
 80030d2:	2b00      	cmp	r3, #0
 80030d4:	f000 8087 	beq.w	80031e6 <HAL_RCC_OscConfig+0x12e>
 80030d8:	4b92      	ldr	r3, [pc, #584]	; (8003324 <HAL_RCC_OscConfig+0x26c>)
 80030da:	685b      	ldr	r3, [r3, #4]
 80030dc:	f003 030c 	and.w	r3, r3, #12
 80030e0:	2b04      	cmp	r3, #4
 80030e2:	d00c      	beq.n	80030fe <HAL_RCC_OscConfig+0x46>
 80030e4:	4b8f      	ldr	r3, [pc, #572]	; (8003324 <HAL_RCC_OscConfig+0x26c>)
 80030e6:	685b      	ldr	r3, [r3, #4]
 80030e8:	f003 030c 	and.w	r3, r3, #12
 80030ec:	2b08      	cmp	r3, #8
 80030ee:	d112      	bne.n	8003116 <HAL_RCC_OscConfig+0x5e>
 80030f0:	4b8c      	ldr	r3, [pc, #560]	; (8003324 <HAL_RCC_OscConfig+0x26c>)
 80030f2:	685b      	ldr	r3, [r3, #4]
 80030f4:	f403 3380 	and.w	r3, r3, #65536	; 0x10000
 80030f8:	f5b3 3f80 	cmp.w	r3, #65536	; 0x10000
 80030fc:	d10b      	bne.n	8003116 <HAL_RCC_OscConfig+0x5e>
 80030fe:	4b89      	ldr	r3, [pc, #548]	; (8003324 <HAL_RCC_OscConfig+0x26c>)
 8003100:	681b      	ldr	r3, [r3, #0]
 8003102:	f403 3300 	and.w	r3, r3, #131072	; 0x20000
 8003106:	2b00      	cmp	r3, #0
 8003108:	d06c      	beq.n	80031e4 <HAL_RCC_OscConfig+0x12c>
 800310a:	687b      	ldr	r3, [r7, #4]
 800310c:	685b      	ldr	r3, [r3, #4]
 800310e:	2b00      	cmp	r3, #0
 8003110:	d168      	bne.n	80031e4 <HAL_RCC_OscConfig+0x12c>
 8003112:	2301      	movs	r3, #1
 8003114:	e246      	b.n	80035a4 <HAL_RCC_OscConfig+0x4ec>
 8003116:	687b      	ldr	r3, [r7, #4]
 8003118:	685b      	ldr	r3, [r3, #4]
 800311a:	f5b3 3f80 	cmp.w	r3, #65536	; 0x10000
 800311e:	d106      	bne.n	800312e <HAL_RCC_OscConfig+0x76>
 8003120:	4b80      	ldr	r3, [pc, #512]	; (8003324 <HAL_RCC_OscConfig+0x26c>)
 8003122:	681b      	ldr	r3, [r3, #0]
 8003124:	4a7f      	ldr	r2, [pc, #508]	; (8003324 <HAL_RCC_OscConfig+0x26c>)
 8003126:	f443 3380 	orr.w	r3, r3, #65536	; 0x10000
 800312a:	6013      	str	r3, [r2, #0]
 800312c:	e02e      	b.n	800318c <HAL_RCC_OscConfig+0xd4>
 800312e:	687b      	ldr	r3, [r7, #4]
 8003130:	685b      	ldr	r3, [r3, #4]
 8003132:	2b00      	cmp	r3, #0
 8003134:	d10c      	bne.n	8003150 <HAL_RCC_OscConfig+0x98>
 8003136:	4b7b      	ldr	r3, [pc, #492]	; (8003324 <HAL_RCC_OscConfig+0x26c>)
 8003138:	681b      	ldr	r3, [r3, #0]
 800313a:	4a7a      	ldr	r2, [pc, #488]	; (8003324 <HAL_RCC_OscConfig+0x26c>)
 800313c:	f423 3380 	bic.w	r3, r3, #65536	; 0x10000
 8003140:	6013      	str	r3, [r2, #0]
 8003142:	4b78      	ldr	r3, [pc, #480]	; (8003324 <HAL_RCC_OscConfig+0x26c>)
 8003144:	681b      	ldr	r3, [r3, #0]
 8003146:	4a77      	ldr	r2, [pc, #476]	; (8003324 <HAL_RCC_OscConfig+0x26c>)
 8003148:	f423 2380 	bic.w	r3, r3, #262144	; 0x40000
 800314c:	6013      	str	r3, [r2, #0]
 800314e:	e01d      	b.n	800318c <HAL_RCC_OscConfig+0xd4>
 8003150:	687b      	ldr	r3, [r7, #4]
 8003152:	685b      	ldr	r3, [r3, #4]
 8003154:	f5b3 2fa0 	cmp.w	r3, #327680	; 0x50000
 8003158:	d10c      	bne.n	8003174 <HAL_RCC_OscConfig+0xbc>
 800315a:	4b72      	ldr	r3, [pc, #456]	; (8003324 <HAL_RCC_OscConfig+0x26c>)
 800315c:	681b      	ldr	r3, [r3, #0]
 800315e:	4a71      	ldr	r2, [pc, #452]	; (8003324 <HAL_RCC_OscConfig+0x26c>)
 8003160:	f443 2380 	orr.w	r3, r3, #262144	; 0x40000
 8003164:	6013      	str	r3, [r2, #0]
 8003166:	4b6f      	ldr	r3, [pc, #444]	; (8003324 <HAL_RCC_OscConfig+0x26c>)
 8003168:	681b      	ldr	r3, [r3, #0]
 800316a:	4a6e      	ldr	r2, [pc, #440]	; (8003324 <HAL_RCC_OscConfig+0x26c>)
 800316c:	f443 3380 	orr.w	r3, r3, #65536	; 0x10000
 8003170:	6013      	str	r3, [r2, #0]
 8003172:	e00b      	b.n	800318c <HAL_RCC_OscConfig+0xd4>
 8003174:	4b6b      	ldr	r3, [pc, #428]	; (8003324 <HAL_RCC_OscConfig+0x26c>)
 8003176:	681b      	ldr	r3, [r3, #0]
 8003178:	4a6a      	ldr	r2, [pc, #424]	; (8003324 <HAL_RCC_OscConfig+0x26c>)
 800317a:	f423 3380 	bic.w	r3, r3, #65536	; 0x10000
 800317e:	6013      	str	r3, [r2, #0]
 8003180:	4b68      	ldr	r3, [pc, #416]	; (8003324 <HAL_RCC_OscConfig+0x26c>)
 8003182:	681b      	ldr	r3, [r3, #0]
 8003184:	4a67      	ldr	r2, [pc, #412]	; (8003324 <HAL_RCC_OscConfig+0x26c>)
 8003186:	f423 2380 	bic.w	r3, r3, #262144	; 0x40000
 800318a:	6013      	str	r3, [r2, #0]
 800318c:	687b      	ldr	r3, [r7, #4]
 800318e:	685b      	ldr	r3, [r3, #4]
 8003190:	2b00      	cmp	r3, #0
 8003192:	d013      	beq.n	80031bc <HAL_RCC_OscConfig+0x104>
 8003194:	f7fe fe94 	bl	8001ec0 <HAL_GetTick>
 8003198:	6138      	str	r0, [r7, #16]
 800319a:	e008      	b.n	80031ae <HAL_RCC_OscConfig+0xf6>
 800319c:	f7fe fe90 	bl	8001ec0 <HAL_GetTick>
 80031a0:	4602      	mov	r2, r0
 80031a2:	693b      	ldr	r3, [r7, #16]
 80031a4:	1ad3      	subs	r3, r2, r3
 80031a6:	2b64      	cmp	r3, #100	; 0x64
 80031a8:	d901      	bls.n	80031ae <HAL_RCC_OscConfig+0xf6>
 80031aa:	2303      	movs	r3, #3
 80031ac:	e1fa      	b.n	80035a4 <HAL_RCC_OscConfig+0x4ec>
 80031ae:	4b5d      	ldr	r3, [pc, #372]	; (8003324 <HAL_RCC_OscConfig+0x26c>)
 80031b0:	681b      	ldr	r3, [r3, #0]
 80031b2:	f403 3300 	and.w	r3, r3, #131072	; 0x20000
 80031b6:	2b00      	cmp	r3, #0
 80031b8:	d0f0      	beq.n	800319c <HAL_RCC_OscConfig+0xe4>
 80031ba:	e014      	b.n	80031e6 <HAL_RCC_OscConfig+0x12e>
 80031bc:	f7fe fe80 	bl	8001ec0 <HAL_GetTick>
 80031c0:	6138      	str	r0, [r7, #16]
 80031c2:	e008      	b.n	80031d6 <HAL_RCC_OscConfig+0x11e>
 80031c4:	f7fe fe7c 	bl	8001ec0 <HAL_GetTick>
 80031c8:	4602      	mov	r2, r0
 80031ca:	693b      	ldr	r3, [r7, #16]
 80031cc:	1ad3      	subs	r3, r2, r3
 80031ce:	2b64      	cmp	r3, #100	; 0x64
 80031d0:	d901      	bls.n	80031d6 <HAL_RCC_OscConfig+0x11e>
 80031d2:	2303      	movs	r3, #3
 80031d4:	e1e6      	b.n	80035a4 <HAL_RCC_OscConfig+0x4ec>
 80031d6:	4b53      	ldr	r3, [pc, #332]	; (8003324 <HAL_RCC_OscConfig+0x26c>)
 80031d8:	681b      	ldr	r3, [r3, #0]
 80031da:	f403 3300 	and.w	r3, r3, #131072	; 0x20000
 80031de:	2b00      	cmp	r3, #0
 80031e0:	d1f0      	bne.n	80031c4 <HAL_RCC_OscConfig+0x10c>
 80031e2:	e000      	b.n	80031e6 <HAL_RCC_OscConfig+0x12e>
 80031e4:	bf00      	nop
 80031e6:	687b      	ldr	r3, [r7, #4]
 80031e8:	681b      	ldr	r3, [r3, #0]
 80031ea:	f003 0302 	and.w	r3, r3, #2
 80031ee:	2b00      	cmp	r3, #0
 80031f0:	d063      	beq.n	80032ba <HAL_RCC_OscConfig+0x202>
 80031f2:	4b4c      	ldr	r3, [pc, #304]	; (8003324 <HAL_RCC_OscConfig+0x26c>)
 80031f4:	685b      	ldr	r3, [r3, #4]
 80031f6:	f003 030c 	and.w	r3, r3, #12
 80031fa:	2b00      	cmp	r3, #0
 80031fc:	d00b      	beq.n	8003216 <HAL_RCC_OscConfig+0x15e>
 80031fe:	4b49      	ldr	r3, [pc, #292]	; (8003324 <HAL_RCC_OscConfig+0x26c>)
 8003200:	685b      	ldr	r3, [r3, #4]
 8003202:	f003 030c 	and.w	r3, r3, #12
 8003206:	2b08      	cmp	r3, #8
 8003208:	d11c      	bne.n	8003244 <HAL_RCC_OscConfig+0x18c>
 800320a:	4b46      	ldr	r3, [pc, #280]	; (8003324 <HAL_RCC_OscConfig+0x26c>)
 800320c:	685b      	ldr	r3, [r3, #4]
 800320e:	f403 3380 	and.w	r3, r3, #65536	; 0x10000
 8003212:	2b00      	cmp	r3, #0
 8003214:	d116      	bne.n	8003244 <HAL_RCC_OscConfig+0x18c>
 8003216:	4b43      	ldr	r3, [pc, #268]	; (8003324 <HAL_RCC_OscConfig+0x26c>)
 8003218:	681b      	ldr	r3, [r3, #0]
 800321a:	f003 0302 	and.w	r3, r3, #2
 800321e:	2b00      	cmp	r3, #0
 8003220:	d005      	beq.n	800322e <HAL_RCC_OscConfig+0x176>
 8003222:	687b      	ldr	r3, [r7, #4]
 8003224:	691b      	ldr	r3, [r3, #16]
 8003226:	2b01      	cmp	r3, #1
 8003228:	d001      	beq.n	800322e <HAL_RCC_OscConfig+0x176>
 800322a:	2301      	movs	r3, #1
 800322c:	e1ba      	b.n	80035a4 <HAL_RCC_OscConfig+0x4ec>
 800322e:	4b3d      	ldr	r3, [pc, #244]	; (8003324 <HAL_RCC_OscConfig+0x26c>)
 8003230:	681b      	ldr	r3, [r3, #0]
 8003232:	f023 02f8 	bic.w	r2, r3, #248	; 0xf8
 8003236:	687b      	ldr	r3, [r7, #4]
 8003238:	695b      	ldr	r3, [r3, #20]
 800323a:	00db      	lsls	r3, r3, #3
 800323c:	4939      	ldr	r1, [pc, #228]	; (8003324 <HAL_RCC_OscConfig+0x26c>)
 800323e:	4313      	orrs	r3, r2
 8003240:	600b      	str	r3, [r1, #0]
 8003242:	e03a      	b.n	80032ba <HAL_RCC_OscConfig+0x202>
 8003244:	687b      	ldr	r3, [r7, #4]
 8003246:	691b      	ldr	r3, [r3, #16]
 8003248:	2b00      	cmp	r3, #0
 800324a:	d020      	beq.n	800328e <HAL_RCC_OscConfig+0x1d6>
 800324c:	4b36      	ldr	r3, [pc, #216]	; (8003328 <HAL_RCC_OscConfig+0x270>)
 800324e:	2201      	movs	r2, #1
 8003250:	601a      	str	r2, [r3, #0]
 8003252:	f7fe fe35 	bl	8001ec0 <HAL_GetTick>
 8003256:	6138      	str	r0, [r7, #16]
 8003258:	e008      	b.n	800326c <HAL_RCC_OscConfig+0x1b4>
 800325a:	f7fe fe31 	bl	8001ec0 <HAL_GetTick>
 800325e:	4602      	mov	r2, r0
 8003260:	693b      	ldr	r3, [r7, #16]
 8003262:	1ad3      	subs	r3, r2, r3
 8003264:	2b02      	cmp	r3, #2
 8003266:	d901      	bls.n	800326c <HAL_RCC_OscConfig+0x1b4>
 8003268:	2303      	movs	r3, #3
 800326a:	e19b      	b.n	80035a4 <HAL_RCC_OscConfig+0x4ec>
 800326c:	4b2d      	ldr	r3, [pc, #180]	; (8003324 <HAL_RCC_OscConfig+0x26c>)
 800326e:	681b      	ldr	r3, [r3, #0]
 8003270:	f003 0302 	and.w	r3, r3, #2
 8003274:	2b00      	cmp	r3, #0
 8003276:	d0f0      	beq.n	800325a <HAL_RCC_OscConfig+0x1a2>
 8003278:	4b2a      	ldr	r3, [pc, #168]	; (8003324 <HAL_RCC_OscConfig+0x26c>)
 800327a:	681b      	ldr	r3, [r3, #0]
 800327c:	f023 02f8 	bic.w	r2, r3, #248	; 0xf8
 8003280:	687b      	ldr	r3, [r7, #4]
 8003282:	695b      	ldr	r3, [r3, #20]
 8003284:	00db      	lsls	r3, r3, #3
 8003286:	4927      	ldr	r1, [pc, #156]	; (8003324 <HAL_RCC_OscConfig+0x26c>)
 8003288:	4313      	orrs	r3, r2
 800328a:	600b      	str	r3, [r1, #0]
 800328c:	e015      	b.n	80032ba <HAL_RCC_OscConfig+0x202>
 800328e:	4b26      	ldr	r3, [pc, #152]	; (8003328 <HAL_RCC_OscConfig+0x270>)
 8003290:	2200      	movs	r2, #0
 8003292:	601a      	str	r2, [r3, #0]
 8003294:	f7fe fe14 	bl	8001ec0 <HAL_GetTick>
 8003298:	6138      	str	r0, [r7, #16]
 800329a:	e008      	b.n	80032ae <HAL_RCC_OscConfig+0x1f6>
 800329c:	f7fe fe10 	bl	8001ec0 <HAL_GetTick>
 80032a0:	4602      	mov	r2, r0
 80032a2:	693b      	ldr	r3, [r7, #16]
 80032a4:	1ad3      	subs	r3, r2, r3
 80032a6:	2b02      	cmp	r3, #2
 80032a8:	d901      	bls.n	80032ae <HAL_RCC_OscConfig+0x1f6>
 80032aa:	2303      	movs	r3, #3
 80032ac:	e17a      	b.n	80035a4 <HAL_RCC_OscConfig+0x4ec>
 80032ae:	4b1d      	ldr	r3, [pc, #116]	; (8003324 <HAL_RCC_OscConfig+0x26c>)
 80032b0:	681b      	ldr	r3, [r3, #0]
 80032b2:	f003 0302 	and.w	r3, r3, #2
 80032b6:	2b00      	cmp	r3, #0
 80032b8:	d1f0      	bne.n	800329c <HAL_RCC_OscConfig+0x1e4>
 80032ba:	687b      	ldr	r3, [r7, #4]
 80032bc:	681b      	ldr	r3, [r3, #0]
 80032be:	f003 0308 	and.w	r3, r3, #8
 80032c2:	2b00      	cmp	r3, #0
 80032c4:	d03a      	beq.n	800333c <HAL_RCC_OscConfig+0x284>
 80032c6:	687b      	ldr	r3, [r7, #4]
 80032c8:	699b      	ldr	r3, [r3, #24]
 80032ca:	2b00      	cmp	r3, #0
 80032cc:	d019      	beq.n	8003302 <HAL_RCC_OscConfig+0x24a>
 80032ce:	4b17      	ldr	r3, [pc, #92]	; (800332c <HAL_RCC_OscConfig+0x274>)
 80032d0:	2201      	movs	r2, #1
 80032d2:	601a      	str	r2, [r3, #0]
 80032d4:	f7fe fdf4 	bl	8001ec0 <HAL_GetTick>
 80032d8:	6138      	str	r0, [r7, #16]
 80032da:	e008      	b.n	80032ee <HAL_RCC_OscConfig+0x236>
 80032dc:	f7fe fdf0 	bl	8001ec0 <HAL_GetTick>
 80032e0:	4602      	mov	r2, r0
 80032e2:	693b      	ldr	r3, [r7, #16]
 80032e4:	1ad3      	subs	r3, r2, r3
 80032e6:	2b02      	cmp	r3, #2
 80032e8:	d901      	bls.n	80032ee <HAL_RCC_OscConfig+0x236>
 80032ea:	2303      	movs	r3, #3
 80032ec:	e15a      	b.n	80035a4 <HAL_RCC_OscConfig+0x4ec>
 80032ee:	4b0d      	ldr	r3, [pc, #52]	; (8003324 <HAL_RCC_OscConfig+0x26c>)
 80032f0:	6a5b      	ldr	r3, [r3, #36]	; 0x24
 80032f2:	f003 0302 	and.w	r3, r3, #2
 80032f6:	2b00      	cmp	r3, #0
 80032f8:	d0f0      	beq.n	80032dc <HAL_RCC_OscConfig+0x224>
 80032fa:	2001      	movs	r0, #1
 80032fc:	f000 faa6 	bl	800384c <RCC_Delay>
 8003300:	e01c      	b.n	800333c <HAL_RCC_OscConfig+0x284>
 8003302:	4b0a      	ldr	r3, [pc, #40]	; (800332c <HAL_RCC_OscConfig+0x274>)
 8003304:	2200      	movs	r2, #0
 8003306:	601a      	str	r2, [r3, #0]
 8003308:	f7fe fdda 	bl	8001ec0 <HAL_GetTick>
 800330c:	6138      	str	r0, [r7, #16]
 800330e:	e00f      	b.n	8003330 <HAL_RCC_OscConfig+0x278>
 8003310:	f7fe fdd6 	bl	8001ec0 <HAL_GetTick>
 8003314:	4602      	mov	r2, r0
 8003316:	693b      	ldr	r3, [r7, #16]
 8003318:	1ad3      	subs	r3, r2, r3
 800331a:	2b02      	cmp	r3, #2
 800331c:	d908      	bls.n	8003330 <HAL_RCC_OscConfig+0x278>
 800331e:	2303      	movs	r3, #3
 8003320:	e140      	b.n	80035a4 <HAL_RCC_OscConfig+0x4ec>
 8003322:	bf00      	nop
 8003324:	40021000 	.word	0x40021000
 8003328:	42420000 	.word	0x42420000
 800332c:	42420480 	.word	0x42420480
 8003330:	4b9e      	ldr	r3, [pc, #632]	; (80035ac <HAL_RCC_OscConfig+0x4f4>)
 8003332:	6a5b      	ldr	r3, [r3, #36]	; 0x24
 8003334:	f003 0302 	and.w	r3, r3, #2
 8003338:	2b00      	cmp	r3, #0
 800333a:	d1e9      	bne.n	8003310 <HAL_RCC_OscConfig+0x258>
 800333c:	687b      	ldr	r3, [r7, #4]
 800333e:	681b      	ldr	r3, [r3, #0]
 8003340:	f003 0304 	and.w	r3, r3, #4
 8003344:	2b00      	cmp	r3, #0
 8003346:	f000 80a6 	beq.w	8003496 <HAL_RCC_OscConfig+0x3de>
 800334a:	2300      	movs	r3, #0
 800334c:	75fb      	strb	r3, [r7, #23]
 800334e:	4b97      	ldr	r3, [pc, #604]	; (80035ac <HAL_RCC_OscConfig+0x4f4>)
 8003350:	69db      	ldr	r3, [r3, #28]
 8003352:	f003 5380 	and.w	r3, r3, #268435456	; 0x10000000
 8003356:	2b00      	cmp	r3, #0
 8003358:	d10d      	bne.n	8003376 <HAL_RCC_OscConfig+0x2be>
 800335a:	4b94      	ldr	r3, [pc, #592]	; (80035ac <HAL_RCC_OscConfig+0x4f4>)
 800335c:	69db      	ldr	r3, [r3, #28]
 800335e:	4a93      	ldr	r2, [pc, #588]	; (80035ac <HAL_RCC_OscConfig+0x4f4>)
 8003360:	f043 5380 	orr.w	r3, r3, #268435456	; 0x10000000
 8003364:	61d3      	str	r3, [r2, #28]
 8003366:	4b91      	ldr	r3, [pc, #580]	; (80035ac <HAL_RCC_OscConfig+0x4f4>)
 8003368:	69db      	ldr	r3, [r3, #28]
 800336a:	f003 5380 	and.w	r3, r3, #268435456	; 0x10000000
 800336e:	60bb      	str	r3, [r7, #8]
 8003370:	68bb      	ldr	r3, [r7, #8]
 8003372:	2301      	movs	r3, #1
 8003374:	75fb      	strb	r3, [r7, #23]
 8003376:	4b8e      	ldr	r3, [pc, #568]	; (80035b0 <HAL_RCC_OscConfig+0x4f8>)
 8003378:	681b      	ldr	r3, [r3, #0]
 800337a:	f403 7380 	and.w	r3, r3, #256	; 0x100
 800337e:	2b00      	cmp	r3, #0
 8003380:	d118      	bne.n	80033b4 <HAL_RCC_OscConfig+0x2fc>
 8003382:	4b8b      	ldr	r3, [pc, #556]	; (80035b0 <HAL_RCC_OscConfig+0x4f8>)
 8003384:	681b      	ldr	r3, [r3, #0]
 8003386:	4a8a      	ldr	r2, [pc, #552]	; (80035b0 <HAL_RCC_OscConfig+0x4f8>)
 8003388:	f443 7380 	orr.w	r3, r3, #256	; 0x100
 800338c:	6013      	str	r3, [r2, #0]
 800338e:	f7fe fd97 	bl	8001ec0 <HAL_GetTick>
 8003392:	6138      	str	r0, [r7, #16]
 8003394:	e008      	b.n	80033a8 <HAL_RCC_OscConfig+0x2f0>
 8003396:	f7fe fd93 	bl	8001ec0 <HAL_GetTick>
 800339a:	4602      	mov	r2, r0
 800339c:	693b      	ldr	r3, [r7, #16]
 800339e:	1ad3      	subs	r3, r2, r3
 80033a0:	2b64      	cmp	r3, #100	; 0x64
 80033a2:	d901      	bls.n	80033a8 <HAL_RCC_OscConfig+0x2f0>
 80033a4:	2303      	movs	r3, #3
 80033a6:	e0fd      	b.n	80035a4 <HAL_RCC_OscConfig+0x4ec>
 80033a8:	4b81      	ldr	r3, [pc, #516]	; (80035b0 <HAL_RCC_OscConfig+0x4f8>)
 80033aa:	681b      	ldr	r3, [r3, #0]
 80033ac:	f403 7380 	and.w	r3, r3, #256	; 0x100
 80033b0:	2b00      	cmp	r3, #0
 80033b2:	d0f0      	beq.n	8003396 <HAL_RCC_OscConfig+0x2de>
 80033b4:	687b      	ldr	r3, [r7, #4]
 80033b6:	68db      	ldr	r3, [r3, #12]
 80033b8:	2b01      	cmp	r3, #1
 80033ba:	d106      	bne.n	80033ca <HAL_RCC_OscConfig+0x312>
 80033bc:	4b7b      	ldr	r3, [pc, #492]	; (80035ac <HAL_RCC_OscConfig+0x4f4>)
 80033be:	6a1b      	ldr	r3, [r3, #32]
 80033c0:	4a7a      	ldr	r2, [pc, #488]	; (80035ac <HAL_RCC_OscConfig+0x4f4>)
 80033c2:	f043 0301 	orr.w	r3, r3, #1
 80033c6:	6213      	str	r3, [r2, #32]
 80033c8:	e02d      	b.n	8003426 <HAL_RCC_OscConfig+0x36e>
 80033ca:	687b      	ldr	r3, [r7, #4]
 80033cc:	68db      	ldr	r3, [r3, #12]
 80033ce:	2b00      	cmp	r3, #0
 80033d0:	d10c      	bne.n	80033ec <HAL_RCC_OscConfig+0x334>
 80033d2:	4b76      	ldr	r3, [pc, #472]	; (80035ac <HAL_RCC_OscConfig+0x4f4>)
 80033d4:	6a1b      	ldr	r3, [r3, #32]
 80033d6:	4a75      	ldr	r2, [pc, #468]	; (80035ac <HAL_RCC_OscConfig+0x4f4>)
 80033d8:	f023 0301 	bic.w	r3, r3, #1
 80033dc:	6213      	str	r3, [r2, #32]
 80033de:	4b73      	ldr	r3, [pc, #460]	; (80035ac <HAL_RCC_OscConfig+0x4f4>)
 80033e0:	6a1b      	ldr	r3, [r3, #32]
 80033e2:	4a72      	ldr	r2, [pc, #456]	; (80035ac <HAL_RCC_OscConfig+0x4f4>)
 80033e4:	f023 0304 	bic.w	r3, r3, #4
 80033e8:	6213      	str	r3, [r2, #32]
 80033ea:	e01c      	b.n	8003426 <HAL_RCC_OscConfig+0x36e>
 80033ec:	687b      	ldr	r3, [r7, #4]
 80033ee:	68db      	ldr	r3, [r3, #12]
 80033f0:	2b05      	cmp	r3, #5
 80033f2:	d10c      	bne.n	800340e <HAL_RCC_OscConfig+0x356>
 80033f4:	4b6d      	ldr	r3, [pc, #436]	; (80035ac <HAL_RCC_OscConfig+0x4f4>)
 80033f6:	6a1b      	ldr	r3, [r3, #32]
 80033f8:	4a6c      	ldr	r2, [pc, #432]	; (80035ac <HAL_RCC_OscConfig+0x4f4>)
 80033fa:	f043 0304 	orr.w	r3, r3, #4
 80033fe:	6213      	str	r3, [r2, #32]
 8003400:	4b6a      	ldr	r3, [pc, #424]	; (80035ac <HAL_RCC_OscConfig+0x4f4>)
 8003402:	6a1b      	ldr	r3, [r3, #32]
 8003404:	4a69      	ldr	r2, [pc, #420]	; (80035ac <HAL_RCC_OscConfig+0x4f4>)
 8003406:	f043 0301 	orr.w	r3, r3, #1
 800340a:	6213      	str	r3, [r2, #32]
 800340c:	e00b      	b.n	8003426 <HAL_RCC_OscConfig+0x36e>
 800340e:	4b67      	ldr	r3, [pc, #412]	; (80035ac <HAL_RCC_OscConfig+0x4f4>)
 8003410:	6a1b      	ldr	r3, [r3, #32]
 8003412:	4a66      	ldr	r2, [pc, #408]	; (80035ac <HAL_RCC_OscConfig+0x4f4>)
 8003414:	f023 0301 	bic.w	r3, r3, #1
 8003418:	6213      	str	r3, [r2, #32]
 800341a:	4b64      	ldr	r3, [pc, #400]	; (80035ac <HAL_RCC_OscConfig+0x4f4>)
 800341c:	6a1b      	ldr	r3, [r3, #32]
 800341e:	4a63      	ldr	r2, [pc, #396]	; (80035ac <HAL_RCC_OscConfig+0x4f4>)
 8003420:	f023 0304 	bic.w	r3, r3, #4
 8003424:	6213      	str	r3, [r2, #32]
 8003426:	687b      	ldr	r3, [r7, #4]
 8003428:	68db      	ldr	r3, [r3, #12]
 800342a:	2b00      	cmp	r3, #0
 800342c:	d015      	beq.n	800345a <HAL_RCC_OscConfig+0x3a2>
 800342e:	f7fe fd47 	bl	8001ec0 <HAL_GetTick>
 8003432:	6138      	str	r0, [r7, #16]
 8003434:	e00a      	b.n	800344c <HAL_RCC_OscConfig+0x394>
 8003436:	f7fe fd43 	bl	8001ec0 <HAL_GetTick>
 800343a:	4602      	mov	r2, r0
 800343c:	693b      	ldr	r3, [r7, #16]
 800343e:	1ad3      	subs	r3, r2, r3
 8003440:	f241 3288 	movw	r2, #5000	; 0x1388
 8003444:	4293      	cmp	r3, r2
 8003446:	d901      	bls.n	800344c <HAL_RCC_OscConfig+0x394>
 8003448:	2303      	movs	r3, #3
 800344a:	e0ab      	b.n	80035a4 <HAL_RCC_OscConfig+0x4ec>
 800344c:	4b57      	ldr	r3, [pc, #348]	; (80035ac <HAL_RCC_OscConfig+0x4f4>)
 800344e:	6a1b      	ldr	r3, [r3, #32]
 8003450:	f003 0302 	and.w	r3, r3, #2
 8003454:	2b00      	cmp	r3, #0
 8003456:	d0ee      	beq.n	8003436 <HAL_RCC_OscConfig+0x37e>
 8003458:	e014      	b.n	8003484 <HAL_RCC_OscConfig+0x3cc>
 800345a:	f7fe fd31 	bl	8001ec0 <HAL_GetTick>
 800345e:	6138      	str	r0, [r7, #16]
 8003460:	e00a      	b.n	8003478 <HAL_RCC_OscConfig+0x3c0>
 8003462:	f7fe fd2d 	bl	8001ec0 <HAL_GetTick>
 8003466:	4602      	mov	r2, r0
 8003468:	693b      	ldr	r3, [r7, #16]
 800346a:	1ad3      	subs	r3, r2, r3
 800346c:	f241 3288 	movw	r2, #5000	; 0x1388
 8003470:	4293      	cmp	r3, r2
 8003472:	d901      	bls.n	8003478 <HAL_RCC_OscConfig+0x3c0>
 8003474:	2303      	movs	r3, #3
 8003476:	e095      	b.n	80035a4 <HAL_RCC_OscConfig+0x4ec>
 8003478:	4b4c      	ldr	r3, [pc, #304]	; (80035ac <HAL_RCC_OscConfig+0x4f4>)
 800347a:	6a1b      	ldr	r3, [r3, #32]
 800347c:	f003 0302 	and.w	r3, r3, #2
 8003480:	2b00      	cmp	r3, #0
 8003482:	d1ee      	bne.n	8003462 <HAL_RCC_OscConfig+0x3aa>
 8003484:	7dfb      	ldrb	r3, [r7, #23]
 8003486:	2b01      	cmp	r3, #1
 8003488:	d105      	bne.n	8003496 <HAL_RCC_OscConfig+0x3de>
 800348a:	4b48      	ldr	r3, [pc, #288]	; (80035ac <HAL_RCC_OscConfig+0x4f4>)
 800348c:	69db      	ldr	r3, [r3, #28]
 800348e:	4a47      	ldr	r2, [pc, #284]	; (80035ac <HAL_RCC_OscConfig+0x4f4>)
 8003490:	f023 5380 	bic.w	r3, r3, #268435456	; 0x10000000
 8003494:	61d3      	str	r3, [r2, #28]
 8003496:	687b      	ldr	r3, [r7, #4]
 8003498:	69db      	ldr	r3, [r3, #28]
 800349a:	2b00      	cmp	r3, #0
 800349c:	f000 8081 	beq.w	80035a2 <HAL_RCC_OscConfig+0x4ea>
 80034a0:	4b42      	ldr	r3, [pc, #264]	; (80035ac <HAL_RCC_OscConfig+0x4f4>)
 80034a2:	685b      	ldr	r3, [r3, #4]
 80034a4:	f003 030c 	and.w	r3, r3, #12
 80034a8:	2b08      	cmp	r3, #8
 80034aa:	d061      	beq.n	8003570 <HAL_RCC_OscConfig+0x4b8>
 80034ac:	687b      	ldr	r3, [r7, #4]
 80034ae:	69db      	ldr	r3, [r3, #28]
 80034b0:	2b02      	cmp	r3, #2
 80034b2:	d146      	bne.n	8003542 <HAL_RCC_OscConfig+0x48a>
 80034b4:	4b3f      	ldr	r3, [pc, #252]	; (80035b4 <HAL_RCC_OscConfig+0x4fc>)
 80034b6:	2200      	movs	r2, #0
 80034b8:	601a      	str	r2, [r3, #0]
 80034ba:	f7fe fd01 	bl	8001ec0 <HAL_GetTick>
 80034be:	6138      	str	r0, [r7, #16]
 80034c0:	e008      	b.n	80034d4 <HAL_RCC_OscConfig+0x41c>
 80034c2:	f7fe fcfd 	bl	8001ec0 <HAL_GetTick>
 80034c6:	4602      	mov	r2, r0
 80034c8:	693b      	ldr	r3, [r7, #16]
 80034ca:	1ad3      	subs	r3, r2, r3
 80034cc:	2b02      	cmp	r3, #2
 80034ce:	d901      	bls.n	80034d4 <HAL_RCC_OscConfig+0x41c>
 80034d0:	2303      	movs	r3, #3
 80034d2:	e067      	b.n	80035a4 <HAL_RCC_OscConfig+0x4ec>
 80034d4:	4b35      	ldr	r3, [pc, #212]	; (80035ac <HAL_RCC_OscConfig+0x4f4>)
 80034d6:	681b      	ldr	r3, [r3, #0]
 80034d8:	f003 7300 	and.w	r3, r3, #33554432	; 0x2000000
 80034dc:	2b00      	cmp	r3, #0
 80034de:	d1f0      	bne.n	80034c2 <HAL_RCC_OscConfig+0x40a>
 80034e0:	687b      	ldr	r3, [r7, #4]
 80034e2:	6a1b      	ldr	r3, [r3, #32]
 80034e4:	f5b3 3f80 	cmp.w	r3, #65536	; 0x10000
 80034e8:	d108      	bne.n	80034fc <HAL_RCC_OscConfig+0x444>
 80034ea:	4b30      	ldr	r3, [pc, #192]	; (80035ac <HAL_RCC_OscConfig+0x4f4>)
 80034ec:	685b      	ldr	r3, [r3, #4]
 80034ee:	f423 3200 	bic.w	r2, r3, #131072	; 0x20000
 80034f2:	687b      	ldr	r3, [r7, #4]
 80034f4:	689b      	ldr	r3, [r3, #8]
 80034f6:	492d      	ldr	r1, [pc, #180]	; (80035ac <HAL_RCC_OscConfig+0x4f4>)
 80034f8:	4313      	orrs	r3, r2
 80034fa:	604b      	str	r3, [r1, #4]
 80034fc:	4b2b      	ldr	r3, [pc, #172]	; (80035ac <HAL_RCC_OscConfig+0x4f4>)
 80034fe:	685b      	ldr	r3, [r3, #4]
 8003500:	f423 1274 	bic.w	r2, r3, #3997696	; 0x3d0000
 8003504:	687b      	ldr	r3, [r7, #4]
 8003506:	6a19      	ldr	r1, [r3, #32]
 8003508:	687b      	ldr	r3, [r7, #4]
 800350a:	6a5b      	ldr	r3, [r3, #36]	; 0x24
 800350c:	430b      	orrs	r3, r1
 800350e:	4927      	ldr	r1, [pc, #156]	; (80035ac <HAL_RCC_OscConfig+0x4f4>)
 8003510:	4313      	orrs	r3, r2
 8003512:	604b      	str	r3, [r1, #4]
 8003514:	4b27      	ldr	r3, [pc, #156]	; (80035b4 <HAL_RCC_OscConfig+0x4fc>)
 8003516:	2201      	movs	r2, #1
 8003518:	601a      	str	r2, [r3, #0]
 800351a:	f7fe fcd1 	bl	8001ec0 <HAL_GetTick>
 800351e:	6138      	str	r0, [r7, #16]
 8003520:	e008      	b.n	8003534 <HAL_RCC_OscConfig+0x47c>
 8003522:	f7fe fccd 	bl	8001ec0 <HAL_GetTick>
 8003526:	4602      	mov	r2, r0
 8003528:	693b      	ldr	r3, [r7, #16]
 800352a:	1ad3      	subs	r3, r2, r3
 800352c:	2b02      	cmp	r3, #2
 800352e:	d901      	bls.n	8003534 <HAL_RCC_OscConfig+0x47c>
 8003530:	2303      	movs	r3, #3
 8003532:	e037      	b.n	80035a4 <HAL_RCC_OscConfig+0x4ec>
 8003534:	4b1d      	ldr	r3, [pc, #116]	; (80035ac <HAL_RCC_OscConfig+0x4f4>)
 8003536:	681b      	ldr	r3, [r3, #0]
 8003538:	f003 7300 	and.w	r3, r3, #33554432	; 0x2000000
 800353c:	2b00      	cmp	r3, #0
 800353e:	d0f0      	beq.n	8003522 <HAL_RCC_OscConfig+0x46a>
 8003540:	e02f      	b.n	80035a2 <HAL_RCC_OscConfig+0x4ea>
 8003542:	4b1c      	ldr	r3, [pc, #112]	; (80035b4 <HAL_RCC_OscConfig+0x4fc>)
 8003544:	2200      	movs	r2, #0
 8003546:	601a      	str	r2, [r3, #0]
 8003548:	f7fe fcba 	bl	8001ec0 <HAL_GetTick>
 800354c:	6138      	str	r0, [r7, #16]
 800354e:	e008      	b.n	8003562 <HAL_RCC_OscConfig+0x4aa>
 8003550:	f7fe fcb6 	bl	8001ec0 <HAL_GetTick>
 8003554:	4602      	mov	r2, r0
 8003556:	693b      	ldr	r3, [r7, #16]
 8003558:	1ad3      	subs	r3, r2, r3
 800355a:	2b02      	cmp	r3, #2
 800355c:	d901      	bls.n	8003562 <HAL_RCC_OscConfig+0x4aa>
 800355e:	2303      	movs	r3, #3
 8003560:	e020      	b.n	80035a4 <HAL_RCC_OscConfig+0x4ec>
 8003562:	4b12      	ldr	r3, [pc, #72]	; (80035ac <HAL_RCC_OscConfig+0x4f4>)
 8003564:	681b      	ldr	r3, [r3, #0]
 8003566:	f003 7300 	and.w	r3, r3, #33554432	; 0x2000000
 800356a:	2b00      	cmp	r3, #0
 800356c:	d1f0      	bne.n	8003550 <HAL_RCC_OscConfig+0x498>
 800356e:	e018      	b.n	80035a2 <HAL_RCC_OscConfig+0x4ea>
 8003570:	687b      	ldr	r3, [r7, #4]
 8003572:	69db      	ldr	r3, [r3, #28]
 8003574:	2b01      	cmp	r3, #1
 8003576:	d101      	bne.n	800357c <HAL_RCC_OscConfig+0x4c4>
 8003578:	2301      	movs	r3, #1
 800357a:	e013      	b.n	80035a4 <HAL_RCC_OscConfig+0x4ec>
 800357c:	4b0b      	ldr	r3, [pc, #44]	; (80035ac <HAL_RCC_OscConfig+0x4f4>)
 800357e:	685b      	ldr	r3, [r3, #4]
 8003580:	60fb      	str	r3, [r7, #12]
 8003582:	68fb      	ldr	r3, [r7, #12]
 8003584:	f403 3280 	and.w	r2, r3, #65536	; 0x10000
 8003588:	687b      	ldr	r3, [r7, #4]
 800358a:	6a1b      	ldr	r3, [r3, #32]
 800358c:	429a      	cmp	r2, r3
 800358e:	d106      	bne.n	800359e <HAL_RCC_OscConfig+0x4e6>
 8003590:	68fb      	ldr	r3, [r7, #12]
 8003592:	f403 1270 	and.w	r2, r3, #3932160	; 0x3c0000
 8003596:	687b      	ldr	r3, [r7, #4]
 8003598:	6a5b      	ldr	r3, [r3, #36]	; 0x24
 800359a:	429a      	cmp	r2, r3
 800359c:	d001      	beq.n	80035a2 <HAL_RCC_OscConfig+0x4ea>
 800359e:	2301      	movs	r3, #1
 80035a0:	e000      	b.n	80035a4 <HAL_RCC_OscConfig+0x4ec>
 80035a2:	2300      	movs	r3, #0
 80035a4:	4618      	mov	r0, r3
 80035a6:	3718      	adds	r7, #24
 80035a8:	46bd      	mov	sp, r7
 80035aa:	bd80      	pop	{r7, pc}
 80035ac:	40021000 	.word	0x40021000
 80035b0:	40007000 	.word	0x40007000
 80035b4:	42420060 	.word	0x42420060

080035b8 <HAL_RCC_ClockConfig>:
 80035b8:	b580      	push	{r7, lr}
 80035ba:	b084      	sub	sp, #16
 80035bc:	af00      	add	r7, sp, #0
 80035be:	6078      	str	r0, [r7, #4]
 80035c0:	6039      	str	r1, [r7, #0]
 80035c2:	687b      	ldr	r3, [r7, #4]
 80035c4:	2b00      	cmp	r3, #0
 80035c6:	d101      	bne.n	80035cc <HAL_RCC_ClockConfig+0x14>
 80035c8:	2301      	movs	r3, #1
 80035ca:	e0d0      	b.n	800376e <HAL_RCC_ClockConfig+0x1b6>
 80035cc:	4b6a      	ldr	r3, [pc, #424]	; (8003778 <HAL_RCC_ClockConfig+0x1c0>)
 80035ce:	681b      	ldr	r3, [r3, #0]
 80035d0:	f003 0307 	and.w	r3, r3, #7
 80035d4:	683a      	ldr	r2, [r7, #0]
 80035d6:	429a      	cmp	r2, r3
 80035d8:	d910      	bls.n	80035fc <HAL_RCC_ClockConfig+0x44>
 80035da:	4b67      	ldr	r3, [pc, #412]	; (8003778 <HAL_RCC_ClockConfig+0x1c0>)
 80035dc:	681b      	ldr	r3, [r3, #0]
 80035de:	f023 0207 	bic.w	r2, r3, #7
 80035e2:	4965      	ldr	r1, [pc, #404]	; (8003778 <HAL_RCC_ClockConfig+0x1c0>)
 80035e4:	683b      	ldr	r3, [r7, #0]
 80035e6:	4313      	orrs	r3, r2
 80035e8:	600b      	str	r3, [r1, #0]
 80035ea:	4b63      	ldr	r3, [pc, #396]	; (8003778 <HAL_RCC_ClockConfig+0x1c0>)
 80035ec:	681b      	ldr	r3, [r3, #0]
 80035ee:	f003 0307 	and.w	r3, r3, #7
 80035f2:	683a      	ldr	r2, [r7, #0]
 80035f4:	429a      	cmp	r2, r3
 80035f6:	d001      	beq.n	80035fc <HAL_RCC_ClockConfig+0x44>
 80035f8:	2301      	movs	r3, #1
 80035fa:	e0b8      	b.n	800376e <HAL_RCC_ClockConfig+0x1b6>
 80035fc:	687b      	ldr	r3, [r7, #4]
 80035fe:	681b      	ldr	r3, [r3, #0]
 8003600:	f003 0302 	and.w	r3, r3, #2
 8003604:	2b00      	cmp	r3, #0
 8003606:	d020      	beq.n	800364a <HAL_RCC_ClockConfig+0x92>
 8003608:	687b      	ldr	r3, [r7, #4]
 800360a:	681b      	ldr	r3, [r3, #0]
 800360c:	f003 0304 	and.w	r3, r3, #4
 8003610:	2b00      	cmp	r3, #0
 8003612:	d005      	beq.n	8003620 <HAL_RCC_ClockConfig+0x68>
 8003614:	4b59      	ldr	r3, [pc, #356]	; (800377c <HAL_RCC_ClockConfig+0x1c4>)
 8003616:	685b      	ldr	r3, [r3, #4]
 8003618:	4a58      	ldr	r2, [pc, #352]	; (800377c <HAL_RCC_ClockConfig+0x1c4>)
 800361a:	f443 63e0 	orr.w	r3, r3, #1792	; 0x700
 800361e:	6053      	str	r3, [r2, #4]
 8003620:	687b      	ldr	r3, [r7, #4]
 8003622:	681b      	ldr	r3, [r3, #0]
 8003624:	f003 0308 	and.w	r3, r3, #8
 8003628:	2b00      	cmp	r3, #0
 800362a:	d005      	beq.n	8003638 <HAL_RCC_ClockConfig+0x80>
 800362c:	4b53      	ldr	r3, [pc, #332]	; (800377c <HAL_RCC_ClockConfig+0x1c4>)
 800362e:	685b      	ldr	r3, [r3, #4]
 8003630:	4a52      	ldr	r2, [pc, #328]	; (800377c <HAL_RCC_ClockConfig+0x1c4>)
 8003632:	f443 5360 	orr.w	r3, r3, #14336	; 0x3800
 8003636:	6053      	str	r3, [r2, #4]
 8003638:	4b50      	ldr	r3, [pc, #320]	; (800377c <HAL_RCC_ClockConfig+0x1c4>)
 800363a:	685b      	ldr	r3, [r3, #4]
 800363c:	f023 02f0 	bic.w	r2, r3, #240	; 0xf0
 8003640:	687b      	ldr	r3, [r7, #4]
 8003642:	689b      	ldr	r3, [r3, #8]
 8003644:	494d      	ldr	r1, [pc, #308]	; (800377c <HAL_RCC_ClockConfig+0x1c4>)
 8003646:	4313      	orrs	r3, r2
 8003648:	604b      	str	r3, [r1, #4]
 800364a:	687b      	ldr	r3, [r7, #4]
 800364c:	681b      	ldr	r3, [r3, #0]
 800364e:	f003 0301 	and.w	r3, r3, #1
 8003652:	2b00      	cmp	r3, #0
 8003654:	d040      	beq.n	80036d8 <HAL_RCC_ClockConfig+0x120>
 8003656:	687b      	ldr	r3, [r7, #4]
 8003658:	685b      	ldr	r3, [r3, #4]
 800365a:	2b01      	cmp	r3, #1
 800365c:	d107      	bne.n	800366e <HAL_RCC_ClockConfig+0xb6>
 800365e:	4b47      	ldr	r3, [pc, #284]	; (800377c <HAL_RCC_ClockConfig+0x1c4>)
 8003660:	681b      	ldr	r3, [r3, #0]
 8003662:	f403 3300 	and.w	r3, r3, #131072	; 0x20000
 8003666:	2b00      	cmp	r3, #0
 8003668:	d115      	bne.n	8003696 <HAL_RCC_ClockConfig+0xde>
 800366a:	2301      	movs	r3, #1
 800366c:	e07f      	b.n	800376e <HAL_RCC_ClockConfig+0x1b6>
 800366e:	687b      	ldr	r3, [r7, #4]
 8003670:	685b      	ldr	r3, [r3, #4]
 8003672:	2b02      	cmp	r3, #2
 8003674:	d107      	bne.n	8003686 <HAL_RCC_ClockConfig+0xce>
 8003676:	4b41      	ldr	r3, [pc, #260]	; (800377c <HAL_RCC_ClockConfig+0x1c4>)
 8003678:	681b      	ldr	r3, [r3, #0]
 800367a:	f003 7300 	and.w	r3, r3, #33554432	; 0x2000000
 800367e:	2b00      	cmp	r3, #0
 8003680:	d109      	bne.n	8003696 <HAL_RCC_ClockConfig+0xde>
 8003682:	2301      	movs	r3, #1
 8003684:	e073      	b.n	800376e <HAL_RCC_ClockConfig+0x1b6>
 8003686:	4b3d      	ldr	r3, [pc, #244]	; (800377c <HAL_RCC_ClockConfig+0x1c4>)
 8003688:	681b      	ldr	r3, [r3, #0]
 800368a:	f003 0302 	and.w	r3, r3, #2
 800368e:	2b00      	cmp	r3, #0
 8003690:	d101      	bne.n	8003696 <HAL_RCC_ClockConfig+0xde>
 8003692:	2301      	movs	r3, #1
 8003694:	e06b      	b.n	800376e <HAL_RCC_ClockConfig+0x1b6>
 8003696:	4b39      	ldr	r3, [pc, #228]	; (800377c <HAL_RCC_ClockConfig+0x1c4>)
 8003698:	685b      	ldr	r3, [r3, #4]
 800369a:	f023 0203 	bic.w	r2, r3, #3
 800369e:	687b      	ldr	r3, [r7, #4]
 80036a0:	685b      	ldr	r3, [r3, #4]
 80036a2:	4936      	ldr	r1, [pc, #216]	; (800377c <HAL_RCC_ClockConfig+0x1c4>)
 80036a4:	4313      	orrs	r3, r2
 80036a6:	604b      	str	r3, [r1, #4]
 80036a8:	f7fe fc0a 	bl	8001ec0 <HAL_GetTick>
 80036ac:	60f8      	str	r0, [r7, #12]
 80036ae:	e00a      	b.n	80036c6 <HAL_RCC_ClockConfig+0x10e>
 80036b0:	f7fe fc06 	bl	8001ec0 <HAL_GetTick>
 80036b4:	4602      	mov	r2, r0
 80036b6:	68fb      	ldr	r3, [r7, #12]
 80036b8:	1ad3      	subs	r3, r2, r3
 80036ba:	f241 3288 	movw	r2, #5000	; 0x1388
 80036be:	4293      	cmp	r3, r2
 80036c0:	d901      	bls.n	80036c6 <HAL_RCC_ClockConfig+0x10e>
 80036c2:	2303      	movs	r3, #3
 80036c4:	e053      	b.n	800376e <HAL_RCC_ClockConfig+0x1b6>
 80036c6:	4b2d      	ldr	r3, [pc, #180]	; (800377c <HAL_RCC_ClockConfig+0x1c4>)
 80036c8:	685b      	ldr	r3, [r3, #4]
 80036ca:	f003 020c 	and.w	r2, r3, #12
 80036ce:	687b      	ldr	r3, [r7, #4]
 80036d0:	685b      	ldr	r3, [r3, #4]
 80036d2:	009b      	lsls	r3, r3, #2
 80036d4:	429a      	cmp	r2, r3
 80036d6:	d1eb      	bne.n	80036b0 <HAL_RCC_ClockConfig+0xf8>
 80036d8:	4b27      	ldr	r3, [pc, #156]	; (8003778 <HAL_RCC_ClockConfig+0x1c0>)
 80036da:	681b      	ldr	r3, [r3, #0]
 80036dc:	f003 0307 	and.w	r3, r3, #7
 80036e0:	683a      	ldr	r2, [r7, #0]
 80036e2:	429a      	cmp	r2, r3
 80036e4:	d210      	bcs.n	8003708 <HAL_RCC_ClockConfig+0x150>
 80036e6:	4b24      	ldr	r3, [pc, #144]	; (8003778 <HAL_RCC_ClockConfig+0x1c0>)
 80036e8:	681b      	ldr	r3, [r3, #0]
 80036ea:	f023 0207 	bic.w	r2, r3, #7
 80036ee:	4922      	ldr	r1, [pc, #136]	; (8003778 <HAL_RCC_ClockConfig+0x1c0>)
 80036f0:	683b      	ldr	r3, [r7, #0]
 80036f2:	4313      	orrs	r3, r2
 80036f4:	600b      	str	r3, [r1, #0]
 80036f6:	4b20      	ldr	r3, [pc, #128]	; (8003778 <HAL_RCC_ClockConfig+0x1c0>)
 80036f8:	681b      	ldr	r3, [r3, #0]
 80036fa:	f003 0307 	and.w	r3, r3, #7
 80036fe:	683a      	ldr	r2, [r7, #0]
 8003700:	429a      	cmp	r2, r3
 8003702:	d001      	beq.n	8003708 <HAL_RCC_ClockConfig+0x150>
 8003704:	2301      	movs	r3, #1
 8003706:	e032      	b.n	800376e <HAL_RCC_ClockConfig+0x1b6>
 8003708:	687b      	ldr	r3, [r7, #4]
 800370a:	681b      	ldr	r3, [r3, #0]
 800370c:	f003 0304 	and.w	r3, r3, #4
 8003710:	2b00      	cmp	r3, #0
 8003712:	d008      	beq.n	8003726 <HAL_RCC_ClockConfig+0x16e>
 8003714:	4b19      	ldr	r3, [pc, #100]	; (800377c <HAL_RCC_ClockConfig+0x1c4>)
 8003716:	685b      	ldr	r3, [r3, #4]
 8003718:	f423 62e0 	bic.w	r2, r3, #1792	; 0x700
 800371c:	687b      	ldr	r3, [r7, #4]
 800371e:	68db      	ldr	r3, [r3, #12]
 8003720:	4916      	ldr	r1, [pc, #88]	; (800377c <HAL_RCC_ClockConfig+0x1c4>)
 8003722:	4313      	orrs	r3, r2
 8003724:	604b      	str	r3, [r1, #4]
 8003726:	687b      	ldr	r3, [r7, #4]
 8003728:	681b      	ldr	r3, [r3, #0]
 800372a:	f003 0308 	and.w	r3, r3, #8
 800372e:	2b00      	cmp	r3, #0
 8003730:	d009      	beq.n	8003746 <HAL_RCC_ClockConfig+0x18e>
 8003732:	4b12      	ldr	r3, [pc, #72]	; (800377c <HAL_RCC_ClockConfig+0x1c4>)
 8003734:	685b      	ldr	r3, [r3, #4]
 8003736:	f423 5260 	bic.w	r2, r3, #14336	; 0x3800
 800373a:	687b      	ldr	r3, [r7, #4]
 800373c:	691b      	ldr	r3, [r3, #16]
 800373e:	00db      	lsls	r3, r3, #3
 8003740:	490e      	ldr	r1, [pc, #56]	; (800377c <HAL_RCC_ClockConfig+0x1c4>)
 8003742:	4313      	orrs	r3, r2
 8003744:	604b      	str	r3, [r1, #4]
 8003746:	f000 f821 	bl	800378c <HAL_RCC_GetSysClockFreq>
 800374a:	4602      	mov	r2, r0
 800374c:	4b0b      	ldr	r3, [pc, #44]	; (800377c <HAL_RCC_ClockConfig+0x1c4>)
 800374e:	685b      	ldr	r3, [r3, #4]
 8003750:	091b      	lsrs	r3, r3, #4
 8003752:	f003 030f 	and.w	r3, r3, #15
 8003756:	490a      	ldr	r1, [pc, #40]	; (8003780 <HAL_RCC_ClockConfig+0x1c8>)
 8003758:	5ccb      	ldrb	r3, [r1, r3]
 800375a:	fa22 f303 	lsr.w	r3, r2, r3
 800375e:	4a09      	ldr	r2, [pc, #36]	; (8003784 <HAL_RCC_ClockConfig+0x1cc>)
 8003760:	6013      	str	r3, [r2, #0]
 8003762:	4b09      	ldr	r3, [pc, #36]	; (8003788 <HAL_RCC_ClockConfig+0x1d0>)
 8003764:	681b      	ldr	r3, [r3, #0]
 8003766:	4618      	mov	r0, r3
 8003768:	f7fe fb68 	bl	8001e3c <HAL_InitTick>
 800376c:	2300      	movs	r3, #0
 800376e:	4618      	mov	r0, r3
 8003770:	3710      	adds	r7, #16
 8003772:	46bd      	mov	sp, r7
 8003774:	bd80      	pop	{r7, pc}
 8003776:	bf00      	nop
 8003778:	40022000 	.word	0x40022000
 800377c:	40021000 	.word	0x40021000
 8003780:	08004a98 	.word	0x08004a98
 8003784:	20000000 	.word	0x20000000
 8003788:	20000004 	.word	0x20000004

0800378c <HAL_RCC_GetSysClockFreq>:
 800378c:	b490      	push	{r4, r7}
 800378e:	b08a      	sub	sp, #40	; 0x28
 8003790:	af00      	add	r7, sp, #0
 8003792:	4b2a      	ldr	r3, [pc, #168]	; (800383c <HAL_RCC_GetSysClockFreq+0xb0>)
 8003794:	1d3c      	adds	r4, r7, #4
 8003796:	cb0f      	ldmia	r3, {r0, r1, r2, r3}
 8003798:	e884 000f 	stmia.w	r4, {r0, r1, r2, r3}
 800379c:	f240 2301 	movw	r3, #513	; 0x201
 80037a0:	803b      	strh	r3, [r7, #0]
 80037a2:	2300      	movs	r3, #0
 80037a4:	61fb      	str	r3, [r7, #28]
 80037a6:	2300      	movs	r3, #0
 80037a8:	61bb      	str	r3, [r7, #24]
 80037aa:	2300      	movs	r3, #0
 80037ac:	627b      	str	r3, [r7, #36]	; 0x24
 80037ae:	2300      	movs	r3, #0
 80037b0:	617b      	str	r3, [r7, #20]
 80037b2:	2300      	movs	r3, #0
 80037b4:	623b      	str	r3, [r7, #32]
 80037b6:	4b22      	ldr	r3, [pc, #136]	; (8003840 <HAL_RCC_GetSysClockFreq+0xb4>)
 80037b8:	685b      	ldr	r3, [r3, #4]
 80037ba:	61fb      	str	r3, [r7, #28]
 80037bc:	69fb      	ldr	r3, [r7, #28]
 80037be:	f003 030c 	and.w	r3, r3, #12
 80037c2:	2b04      	cmp	r3, #4
 80037c4:	d002      	beq.n	80037cc <HAL_RCC_GetSysClockFreq+0x40>
 80037c6:	2b08      	cmp	r3, #8
 80037c8:	d003      	beq.n	80037d2 <HAL_RCC_GetSysClockFreq+0x46>
 80037ca:	e02d      	b.n	8003828 <HAL_RCC_GetSysClockFreq+0x9c>
 80037cc:	4b1d      	ldr	r3, [pc, #116]	; (8003844 <HAL_RCC_GetSysClockFreq+0xb8>)
 80037ce:	623b      	str	r3, [r7, #32]
 80037d0:	e02d      	b.n	800382e <HAL_RCC_GetSysClockFreq+0xa2>
 80037d2:	69fb      	ldr	r3, [r7, #28]
 80037d4:	0c9b      	lsrs	r3, r3, #18
 80037d6:	f003 030f 	and.w	r3, r3, #15
 80037da:	f107 0228 	add.w	r2, r7, #40	; 0x28
 80037de:	4413      	add	r3, r2
 80037e0:	f813 3c24 	ldrb.w	r3, [r3, #-36]
 80037e4:	617b      	str	r3, [r7, #20]
 80037e6:	69fb      	ldr	r3, [r7, #28]
 80037e8:	f403 3380 	and.w	r3, r3, #65536	; 0x10000
 80037ec:	2b00      	cmp	r3, #0
 80037ee:	d013      	beq.n	8003818 <HAL_RCC_GetSysClockFreq+0x8c>
 80037f0:	4b13      	ldr	r3, [pc, #76]	; (8003840 <HAL_RCC_GetSysClockFreq+0xb4>)
 80037f2:	685b      	ldr	r3, [r3, #4]
 80037f4:	0c5b      	lsrs	r3, r3, #17
 80037f6:	f003 0301 	and.w	r3, r3, #1
 80037fa:	f107 0228 	add.w	r2, r7, #40	; 0x28
 80037fe:	4413      	add	r3, r2
 8003800:	f813 3c28 	ldrb.w	r3, [r3, #-40]
 8003804:	61bb      	str	r3, [r7, #24]
 8003806:	697b      	ldr	r3, [r7, #20]
 8003808:	4a0e      	ldr	r2, [pc, #56]	; (8003844 <HAL_RCC_GetSysClockFreq+0xb8>)
 800380a:	fb02 f203 	mul.w	r2, r2, r3
 800380e:	69bb      	ldr	r3, [r7, #24]
 8003810:	fbb2 f3f3 	udiv	r3, r2, r3
 8003814:	627b      	str	r3, [r7, #36]	; 0x24
 8003816:	e004      	b.n	8003822 <HAL_RCC_GetSysClockFreq+0x96>
 8003818:	697b      	ldr	r3, [r7, #20]
 800381a:	4a0b      	ldr	r2, [pc, #44]	; (8003848 <HAL_RCC_GetSysClockFreq+0xbc>)
 800381c:	fb02 f303 	mul.w	r3, r2, r3
 8003820:	627b      	str	r3, [r7, #36]	; 0x24
 8003822:	6a7b      	ldr	r3, [r7, #36]	; 0x24
 8003824:	623b      	str	r3, [r7, #32]
 8003826:	e002      	b.n	800382e <HAL_RCC_GetSysClockFreq+0xa2>
 8003828:	4b06      	ldr	r3, [pc, #24]	; (8003844 <HAL_RCC_GetSysClockFreq+0xb8>)
 800382a:	623b      	str	r3, [r7, #32]
 800382c:	bf00      	nop
 800382e:	6a3b      	ldr	r3, [r7, #32]
 8003830:	4618      	mov	r0, r3
 8003832:	3728      	adds	r7, #40	; 0x28
 8003834:	46bd      	mov	sp, r7
 8003836:	bc90      	pop	{r4, r7}
 8003838:	4770      	bx	lr
 800383a:	bf00      	nop
 800383c:	08004a88 	.word	0x08004a88
 8003840:	40021000 	.word	0x40021000
 8003844:	007a1200 	.word	0x007a1200
 8003848:	003d0900 	.word	0x003d0900

0800384c <RCC_Delay>:
 800384c:	b480      	push	{r7}
 800384e:	b085      	sub	sp, #20
 8003850:	af00      	add	r7, sp, #0
 8003852:	6078      	str	r0, [r7, #4]
 8003854:	4b0a      	ldr	r3, [pc, #40]	; (8003880 <RCC_Delay+0x34>)
 8003856:	681b      	ldr	r3, [r3, #0]
 8003858:	4a0a      	ldr	r2, [pc, #40]	; (8003884 <RCC_Delay+0x38>)
 800385a:	fba2 2303 	umull	r2, r3, r2, r3
 800385e:	0a5b      	lsrs	r3, r3, #9
 8003860:	687a      	ldr	r2, [r7, #4]
 8003862:	fb02 f303 	mul.w	r3, r2, r3
 8003866:	60fb      	str	r3, [r7, #12]
 8003868:	bf00      	nop
 800386a:	68fb      	ldr	r3, [r7, #12]
 800386c:	1e5a      	subs	r2, r3, #1
 800386e:	60fa      	str	r2, [r7, #12]
 8003870:	2b00      	cmp	r3, #0
 8003872:	d1f9      	bne.n	8003868 <RCC_Delay+0x1c>
 8003874:	bf00      	nop
 8003876:	bf00      	nop
 8003878:	3714      	adds	r7, #20
 800387a:	46bd      	mov	sp, r7
 800387c:	bc80      	pop	{r7}
 800387e:	4770      	bx	lr
 8003880:	20000000 	.word	0x20000000
 8003884:	10624dd3 	.word	0x10624dd3

08003888 <HAL_RCCEx_PeriphCLKConfig>:
 8003888:	b580      	push	{r7, lr}
 800388a:	b086      	sub	sp, #24
 800388c:	af00      	add	r7, sp, #0
 800388e:	6078      	str	r0, [r7, #4]
 8003890:	2300      	movs	r3, #0
 8003892:	613b      	str	r3, [r7, #16]
 8003894:	2300      	movs	r3, #0
 8003896:	60fb      	str	r3, [r7, #12]
 8003898:	687b      	ldr	r3, [r7, #4]
 800389a:	681b      	ldr	r3, [r3, #0]
 800389c:	f003 0301 	and.w	r3, r3, #1
 80038a0:	2b00      	cmp	r3, #0
 80038a2:	d07d      	beq.n	80039a0 <HAL_RCCEx_PeriphCLKConfig+0x118>
 80038a4:	2300      	movs	r3, #0
 80038a6:	75fb      	strb	r3, [r7, #23]
 80038a8:	4b4f      	ldr	r3, [pc, #316]	; (80039e8 <HAL_RCCEx_PeriphCLKConfig+0x160>)
 80038aa:	69db      	ldr	r3, [r3, #28]
 80038ac:	f003 5380 	and.w	r3, r3, #268435456	; 0x10000000
 80038b0:	2b00      	cmp	r3, #0
 80038b2:	d10d      	bne.n	80038d0 <HAL_RCCEx_PeriphCLKConfig+0x48>
 80038b4:	4b4c      	ldr	r3, [pc, #304]	; (80039e8 <HAL_RCCEx_PeriphCLKConfig+0x160>)
 80038b6:	69db      	ldr	r3, [r3, #28]
 80038b8:	4a4b      	ldr	r2, [pc, #300]	; (80039e8 <HAL_RCCEx_PeriphCLKConfig+0x160>)
 80038ba:	f043 5380 	orr.w	r3, r3, #268435456	; 0x10000000
 80038be:	61d3      	str	r3, [r2, #28]
 80038c0:	4b49      	ldr	r3, [pc, #292]	; (80039e8 <HAL_RCCEx_PeriphCLKConfig+0x160>)
 80038c2:	69db      	ldr	r3, [r3, #28]
 80038c4:	f003 5380 	and.w	r3, r3, #268435456	; 0x10000000
 80038c8:	60bb      	str	r3, [r7, #8]
 80038ca:	68bb      	ldr	r3, [r7, #8]
 80038cc:	2301      	movs	r3, #1
 80038ce:	75fb      	strb	r3, [r7, #23]
 80038d0:	4b46      	ldr	r3, [pc, #280]	; (80039ec <HAL_RCCEx_PeriphCLKConfig+0x164>)
 80038d2:	681b      	ldr	r3, [r3, #0]
 80038d4:	f403 7380 	and.w	r3, r3, #256	; 0x100
 80038d8:	2b00      	cmp	r3, #0
 80038da:	d118      	bne.n	800390e <HAL_RCCEx_PeriphCLKConfig+0x86>
 80038dc:	4b43      	ldr	r3, [pc, #268]	; (80039ec <HAL_RCCEx_PeriphCLKConfig+0x164>)
 80038de:	681b      	ldr	r3, [r3, #0]
 80038e0:	4a42      	ldr	r2, [pc, #264]	; (80039ec <HAL_RCCEx_PeriphCLKConfig+0x164>)
 80038e2:	f443 7380 	orr.w	r3, r3, #256	; 0x100
 80038e6:	6013      	str	r3, [r2, #0]
 80038e8:	f7fe faea 	bl	8001ec0 <HAL_GetTick>
 80038ec:	6138      	str	r0, [r7, #16]
 80038ee:	e008      	b.n	8003902 <HAL_RCCEx_PeriphCLKConfig+0x7a>
 80038f0:	f7fe fae6 	bl	8001ec0 <HAL_GetTick>
 80038f4:	4602      	mov	r2, r0
 80038f6:	693b      	ldr	r3, [r7, #16]
 80038f8:	1ad3      	subs	r3, r2, r3
 80038fa:	2b64      	cmp	r3, #100	; 0x64
 80038fc:	d901      	bls.n	8003902 <HAL_RCCEx_PeriphCLKConfig+0x7a>
 80038fe:	2303      	movs	r3, #3
 8003900:	e06d      	b.n	80039de <HAL_RCCEx_PeriphCLKConfig+0x156>
 8003902:	4b3a      	ldr	r3, [pc, #232]	; (80039ec <HAL_RCCEx_PeriphCLKConfig+0x164>)
 8003904:	681b      	ldr	r3, [r3, #0]
 8003906:	f403 7380 	and.w	r3, r3, #256	; 0x100
 800390a:	2b00      	cmp	r3, #0
 800390c:	d0f0      	beq.n	80038f0 <HAL_RCCEx_PeriphCLKConfig+0x68>
 800390e:	4b36      	ldr	r3, [pc, #216]	; (80039e8 <HAL_RCCEx_PeriphCLKConfig+0x160>)
 8003910:	6a1b      	ldr	r3, [r3, #32]
 8003912:	f403 7340 	and.w	r3, r3, #768	; 0x300
 8003916:	60fb      	str	r3, [r7, #12]
 8003918:	68fb      	ldr	r3, [r7, #12]
 800391a:	2b00      	cmp	r3, #0
 800391c:	d02e      	beq.n	800397c <HAL_RCCEx_PeriphCLKConfig+0xf4>
 800391e:	687b      	ldr	r3, [r7, #4]
 8003920:	685b      	ldr	r3, [r3, #4]
 8003922:	f403 7340 	and.w	r3, r3, #768	; 0x300
 8003926:	68fa      	ldr	r2, [r7, #12]
 8003928:	429a      	cmp	r2, r3
 800392a:	d027      	beq.n	800397c <HAL_RCCEx_PeriphCLKConfig+0xf4>
 800392c:	4b2e      	ldr	r3, [pc, #184]	; (80039e8 <HAL_RCCEx_PeriphCLKConfig+0x160>)
 800392e:	6a1b      	ldr	r3, [r3, #32]
 8003930:	f423 7340 	bic.w	r3, r3, #768	; 0x300
 8003934:	60fb      	str	r3, [r7, #12]
 8003936:	4b2e      	ldr	r3, [pc, #184]	; (80039f0 <HAL_RCCEx_PeriphCLKConfig+0x168>)
 8003938:	2201      	movs	r2, #1
 800393a:	601a      	str	r2, [r3, #0]
 800393c:	4b2c      	ldr	r3, [pc, #176]	; (80039f0 <HAL_RCCEx_PeriphCLKConfig+0x168>)
 800393e:	2200      	movs	r2, #0
 8003940:	601a      	str	r2, [r3, #0]
 8003942:	4a29      	ldr	r2, [pc, #164]	; (80039e8 <HAL_RCCEx_PeriphCLKConfig+0x160>)
 8003944:	68fb      	ldr	r3, [r7, #12]
 8003946:	6213      	str	r3, [r2, #32]
 8003948:	68fb      	ldr	r3, [r7, #12]
 800394a:	f003 0301 	and.w	r3, r3, #1
 800394e:	2b00      	cmp	r3, #0
 8003950:	d014      	beq.n	800397c <HAL_RCCEx_PeriphCLKConfig+0xf4>
 8003952:	f7fe fab5 	bl	8001ec0 <HAL_GetTick>
 8003956:	6138      	str	r0, [r7, #16]
 8003958:	e00a      	b.n	8003970 <HAL_RCCEx_PeriphCLKConfig+0xe8>
 800395a:	f7fe fab1 	bl	8001ec0 <HAL_GetTick>
 800395e:	4602      	mov	r2, r0
 8003960:	693b      	ldr	r3, [r7, #16]
 8003962:	1ad3      	subs	r3, r2, r3
 8003964:	f241 3288 	movw	r2, #5000	; 0x1388
 8003968:	4293      	cmp	r3, r2
 800396a:	d901      	bls.n	8003970 <HAL_RCCEx_PeriphCLKConfig+0xe8>
 800396c:	2303      	movs	r3, #3
 800396e:	e036      	b.n	80039de <HAL_RCCEx_PeriphCLKConfig+0x156>
 8003970:	4b1d      	ldr	r3, [pc, #116]	; (80039e8 <HAL_RCCEx_PeriphCLKConfig+0x160>)
 8003972:	6a1b      	ldr	r3, [r3, #32]
 8003974:	f003 0302 	and.w	r3, r3, #2
 8003978:	2b00      	cmp	r3, #0
 800397a:	d0ee      	beq.n	800395a <HAL_RCCEx_PeriphCLKConfig+0xd2>
 800397c:	4b1a      	ldr	r3, [pc, #104]	; (80039e8 <HAL_RCCEx_PeriphCLKConfig+0x160>)
 800397e:	6a1b      	ldr	r3, [r3, #32]
 8003980:	f423 7240 	bic.w	r2, r3, #768	; 0x300
 8003984:	687b      	ldr	r3, [r7, #4]
 8003986:	685b      	ldr	r3, [r3, #4]
 8003988:	4917      	ldr	r1, [pc, #92]	; (80039e8 <HAL_RCCEx_PeriphCLKConfig+0x160>)
 800398a:	4313      	orrs	r3, r2
 800398c:	620b      	str	r3, [r1, #32]
 800398e:	7dfb      	ldrb	r3, [r7, #23]
 8003990:	2b01      	cmp	r3, #1
 8003992:	d105      	bne.n	80039a0 <HAL_RCCEx_PeriphCLKConfig+0x118>
 8003994:	4b14      	ldr	r3, [pc, #80]	; (80039e8 <HAL_RCCEx_PeriphCLKConfig+0x160>)
 8003996:	69db      	ldr	r3, [r3, #28]
 8003998:	4a13      	ldr	r2, [pc, #76]	; (80039e8 <HAL_RCCEx_PeriphCLKConfig+0x160>)
 800399a:	f023 5380 	bic.w	r3, r3, #268435456	; 0x10000000
 800399e:	61d3      	str	r3, [r2, #28]
 80039a0:	687b      	ldr	r3, [r7, #4]
 80039a2:	681b      	ldr	r3, [r3, #0]
 80039a4:	f003 0302 	and.w	r3, r3, #2
 80039a8:	2b00      	cmp	r3, #0
 80039aa:	d008      	beq.n	80039be <HAL_RCCEx_PeriphCLKConfig+0x136>
 80039ac:	4b0e      	ldr	r3, [pc, #56]	; (80039e8 <HAL_RCCEx_PeriphCLKConfig+0x160>)
 80039ae:	685b      	ldr	r3, [r3, #4]
 80039b0:	f423 4240 	bic.w	r2, r3, #49152	; 0xc000
 80039b4:	687b      	ldr	r3, [r7, #4]
 80039b6:	689b      	ldr	r3, [r3, #8]
 80039b8:	490b      	ldr	r1, [pc, #44]	; (80039e8 <HAL_RCCEx_PeriphCLKConfig+0x160>)
 80039ba:	4313      	orrs	r3, r2
 80039bc:	604b      	str	r3, [r1, #4]
 80039be:	687b      	ldr	r3, [r7, #4]
 80039c0:	681b      	ldr	r3, [r3, #0]
 80039c2:	f003 0310 	and.w	r3, r3, #16
 80039c6:	2b00      	cmp	r3, #0
 80039c8:	d008      	beq.n	80039dc <HAL_RCCEx_PeriphCLKConfig+0x154>
 80039ca:	4b07      	ldr	r3, [pc, #28]	; (80039e8 <HAL_RCCEx_PeriphCLKConfig+0x160>)
 80039cc:	685b      	ldr	r3, [r3, #4]
 80039ce:	f423 0280 	bic.w	r2, r3, #4194304	; 0x400000
 80039d2:	687b      	ldr	r3, [r7, #4]
 80039d4:	68db      	ldr	r3, [r3, #12]
 80039d6:	4904      	ldr	r1, [pc, #16]	; (80039e8 <HAL_RCCEx_PeriphCLKConfig+0x160>)
 80039d8:	4313      	orrs	r3, r2
 80039da:	604b      	str	r3, [r1, #4]
 80039dc:	2300      	movs	r3, #0
 80039de:	4618      	mov	r0, r3
 80039e0:	3718      	adds	r7, #24
 80039e2:	46bd      	mov	sp, r7
 80039e4:	bd80      	pop	{r7, pc}
 80039e6:	bf00      	nop
 80039e8:	40021000 	.word	0x40021000
 80039ec:	40007000 	.word	0x40007000
 80039f0:	42420440 	.word	0x42420440

080039f4 <__errno>:
 80039f4:	4b01      	ldr	r3, [pc, #4]	; (80039fc <__errno+0x8>)
 80039f6:	6818      	ldr	r0, [r3, #0]
 80039f8:	4770      	bx	lr
 80039fa:	bf00      	nop
 80039fc:	2000000c 	.word	0x2000000c

08003a00 <__libc_init_array>:
 8003a00:	b570      	push	{r4, r5, r6, lr}
 8003a02:	2600      	movs	r6, #0
 8003a04:	4d0c      	ldr	r5, [pc, #48]	; (8003a38 <__libc_init_array+0x38>)
 8003a06:	4c0d      	ldr	r4, [pc, #52]	; (8003a3c <__libc_init_array+0x3c>)
 8003a08:	1b64      	subs	r4, r4, r5
 8003a0a:	10a4      	asrs	r4, r4, #2
 8003a0c:	42a6      	cmp	r6, r4
 8003a0e:	d109      	bne.n	8003a24 <__libc_init_array+0x24>
 8003a10:	f001 f80c 	bl	8004a2c <_init>
 8003a14:	2600      	movs	r6, #0
 8003a16:	4d0a      	ldr	r5, [pc, #40]	; (8003a40 <__libc_init_array+0x40>)
 8003a18:	4c0a      	ldr	r4, [pc, #40]	; (8003a44 <__libc_init_array+0x44>)
 8003a1a:	1b64      	subs	r4, r4, r5
 8003a1c:	10a4      	asrs	r4, r4, #2
 8003a1e:	42a6      	cmp	r6, r4
 8003a20:	d105      	bne.n	8003a2e <__libc_init_array+0x2e>
 8003a22:	bd70      	pop	{r4, r5, r6, pc}
 8003a24:	f855 3b04 	ldr.w	r3, [r5], #4
 8003a28:	4798      	blx	r3
 8003a2a:	3601      	adds	r6, #1
 8003a2c:	e7ee      	b.n	8003a0c <__libc_init_array+0xc>
 8003a2e:	f855 3b04 	ldr.w	r3, [r5], #4
 8003a32:	4798      	blx	r3
 8003a34:	3601      	adds	r6, #1
 8003a36:	e7f2      	b.n	8003a1e <__libc_init_array+0x1e>
 8003a38:	08004b10 	.word	0x08004b10
 8003a3c:	08004b10 	.word	0x08004b10
 8003a40:	08004b10 	.word	0x08004b10
 8003a44:	08004b14 	.word	0x08004b14

08003a48 <__itoa>:
 8003a48:	1e93      	subs	r3, r2, #2
 8003a4a:	2b22      	cmp	r3, #34	; 0x22
 8003a4c:	b510      	push	{r4, lr}
 8003a4e:	460c      	mov	r4, r1
 8003a50:	d904      	bls.n	8003a5c <__itoa+0x14>
 8003a52:	2300      	movs	r3, #0
 8003a54:	461c      	mov	r4, r3
 8003a56:	700b      	strb	r3, [r1, #0]
 8003a58:	4620      	mov	r0, r4
 8003a5a:	bd10      	pop	{r4, pc}
 8003a5c:	2a0a      	cmp	r2, #10
 8003a5e:	d109      	bne.n	8003a74 <__itoa+0x2c>
 8003a60:	2800      	cmp	r0, #0
 8003a62:	da07      	bge.n	8003a74 <__itoa+0x2c>
 8003a64:	232d      	movs	r3, #45	; 0x2d
 8003a66:	700b      	strb	r3, [r1, #0]
 8003a68:	2101      	movs	r1, #1
 8003a6a:	4240      	negs	r0, r0
 8003a6c:	4421      	add	r1, r4
 8003a6e:	f000 f80d 	bl	8003a8c <__utoa>
 8003a72:	e7f1      	b.n	8003a58 <__itoa+0x10>
 8003a74:	2100      	movs	r1, #0
 8003a76:	e7f9      	b.n	8003a6c <__itoa+0x24>

08003a78 <itoa>:
 8003a78:	f7ff bfe6 	b.w	8003a48 <__itoa>

08003a7c <memset>:
 8003a7c:	4603      	mov	r3, r0
 8003a7e:	4402      	add	r2, r0
 8003a80:	4293      	cmp	r3, r2
 8003a82:	d100      	bne.n	8003a86 <memset+0xa>
 8003a84:	4770      	bx	lr
 8003a86:	f803 1b01 	strb.w	r1, [r3], #1
 8003a8a:	e7f9      	b.n	8003a80 <memset+0x4>

08003a8c <__utoa>:
 8003a8c:	b5f0      	push	{r4, r5, r6, r7, lr}
 8003a8e:	b08b      	sub	sp, #44	; 0x2c
 8003a90:	4605      	mov	r5, r0
 8003a92:	460b      	mov	r3, r1
 8003a94:	466e      	mov	r6, sp
 8003a96:	4c1d      	ldr	r4, [pc, #116]	; (8003b0c <__utoa+0x80>)
 8003a98:	f104 0c20 	add.w	ip, r4, #32
 8003a9c:	4637      	mov	r7, r6
 8003a9e:	6820      	ldr	r0, [r4, #0]
 8003aa0:	6861      	ldr	r1, [r4, #4]
 8003aa2:	3408      	adds	r4, #8
 8003aa4:	c703      	stmia	r7!, {r0, r1}
 8003aa6:	4564      	cmp	r4, ip
 8003aa8:	463e      	mov	r6, r7
 8003aaa:	d1f7      	bne.n	8003a9c <__utoa+0x10>
 8003aac:	7921      	ldrb	r1, [r4, #4]
 8003aae:	6820      	ldr	r0, [r4, #0]
 8003ab0:	7139      	strb	r1, [r7, #4]
 8003ab2:	1e91      	subs	r1, r2, #2
 8003ab4:	2922      	cmp	r1, #34	; 0x22
 8003ab6:	6038      	str	r0, [r7, #0]
 8003ab8:	f04f 0100 	mov.w	r1, #0
 8003abc:	d904      	bls.n	8003ac8 <__utoa+0x3c>
 8003abe:	7019      	strb	r1, [r3, #0]
 8003ac0:	460b      	mov	r3, r1
 8003ac2:	4618      	mov	r0, r3
 8003ac4:	b00b      	add	sp, #44	; 0x2c
 8003ac6:	bdf0      	pop	{r4, r5, r6, r7, pc}
 8003ac8:	1e58      	subs	r0, r3, #1
 8003aca:	4684      	mov	ip, r0
 8003acc:	fbb5 f7f2 	udiv	r7, r5, r2
 8003ad0:	fb02 5617 	mls	r6, r2, r7, r5
 8003ad4:	f10d 0e28 	add.w	lr, sp, #40	; 0x28
 8003ad8:	4476      	add	r6, lr
 8003ada:	f816 6c28 	ldrb.w	r6, [r6, #-40]
 8003ade:	460c      	mov	r4, r1
 8003ae0:	f80c 6f01 	strb.w	r6, [ip, #1]!
 8003ae4:	462e      	mov	r6, r5
 8003ae6:	42b2      	cmp	r2, r6
 8003ae8:	463d      	mov	r5, r7
 8003aea:	f101 0101 	add.w	r1, r1, #1
 8003aee:	d9ed      	bls.n	8003acc <__utoa+0x40>
 8003af0:	2200      	movs	r2, #0
 8003af2:	545a      	strb	r2, [r3, r1]
 8003af4:	1919      	adds	r1, r3, r4
 8003af6:	1aa5      	subs	r5, r4, r2
 8003af8:	42aa      	cmp	r2, r5
 8003afa:	dae2      	bge.n	8003ac2 <__utoa+0x36>
 8003afc:	f810 5f01 	ldrb.w	r5, [r0, #1]!
 8003b00:	780e      	ldrb	r6, [r1, #0]
 8003b02:	3201      	adds	r2, #1
 8003b04:	7006      	strb	r6, [r0, #0]
 8003b06:	f801 5901 	strb.w	r5, [r1], #-1
 8003b0a:	e7f4      	b.n	8003af6 <__utoa+0x6a>
 8003b0c:	08004aa8 	.word	0x08004aa8

08003b10 <pow>:
 8003b10:	e92d 43f8 	stmdb	sp!, {r3, r4, r5, r6, r7, r8, r9, lr}
 8003b14:	461f      	mov	r7, r3
 8003b16:	4680      	mov	r8, r0
 8003b18:	4689      	mov	r9, r1
 8003b1a:	4616      	mov	r6, r2
 8003b1c:	f000 f8a4 	bl	8003c68 <__ieee754_pow>
 8003b20:	4b4d      	ldr	r3, [pc, #308]	; (8003c58 <pow+0x148>)
 8003b22:	4604      	mov	r4, r0
 8003b24:	f993 3000 	ldrsb.w	r3, [r3]
 8003b28:	460d      	mov	r5, r1
 8003b2a:	3301      	adds	r3, #1
 8003b2c:	d015      	beq.n	8003b5a <pow+0x4a>
 8003b2e:	4632      	mov	r2, r6
 8003b30:	463b      	mov	r3, r7
 8003b32:	4630      	mov	r0, r6
 8003b34:	4639      	mov	r1, r7
 8003b36:	f7fc ff61 	bl	80009fc <__aeabi_dcmpun>
 8003b3a:	b970      	cbnz	r0, 8003b5a <pow+0x4a>
 8003b3c:	4642      	mov	r2, r8
 8003b3e:	464b      	mov	r3, r9
 8003b40:	4640      	mov	r0, r8
 8003b42:	4649      	mov	r1, r9
 8003b44:	f7fc ff5a 	bl	80009fc <__aeabi_dcmpun>
 8003b48:	2200      	movs	r2, #0
 8003b4a:	2300      	movs	r3, #0
 8003b4c:	b148      	cbz	r0, 8003b62 <pow+0x52>
 8003b4e:	4630      	mov	r0, r6
 8003b50:	4639      	mov	r1, r7
 8003b52:	f7fc ff21 	bl	8000998 <__aeabi_dcmpeq>
 8003b56:	2800      	cmp	r0, #0
 8003b58:	d17b      	bne.n	8003c52 <pow+0x142>
 8003b5a:	4620      	mov	r0, r4
 8003b5c:	4629      	mov	r1, r5
 8003b5e:	e8bd 83f8 	ldmia.w	sp!, {r3, r4, r5, r6, r7, r8, r9, pc}
 8003b62:	4640      	mov	r0, r8
 8003b64:	4649      	mov	r1, r9
 8003b66:	f7fc ff17 	bl	8000998 <__aeabi_dcmpeq>
 8003b6a:	b1e0      	cbz	r0, 8003ba6 <pow+0x96>
 8003b6c:	2200      	movs	r2, #0
 8003b6e:	2300      	movs	r3, #0
 8003b70:	4630      	mov	r0, r6
 8003b72:	4639      	mov	r1, r7
 8003b74:	f7fc ff10 	bl	8000998 <__aeabi_dcmpeq>
 8003b78:	2800      	cmp	r0, #0
 8003b7a:	d16a      	bne.n	8003c52 <pow+0x142>
 8003b7c:	4630      	mov	r0, r6
 8003b7e:	4639      	mov	r1, r7
 8003b80:	f000 fe37 	bl	80047f2 <finite>
 8003b84:	2800      	cmp	r0, #0
 8003b86:	d0e8      	beq.n	8003b5a <pow+0x4a>
 8003b88:	2200      	movs	r2, #0
 8003b8a:	2300      	movs	r3, #0
 8003b8c:	4630      	mov	r0, r6
 8003b8e:	4639      	mov	r1, r7
 8003b90:	f7fc ff0c 	bl	80009ac <__aeabi_dcmplt>
 8003b94:	2800      	cmp	r0, #0
 8003b96:	d0e0      	beq.n	8003b5a <pow+0x4a>
 8003b98:	f7ff ff2c 	bl	80039f4 <__errno>
 8003b9c:	2321      	movs	r3, #33	; 0x21
 8003b9e:	2400      	movs	r4, #0
 8003ba0:	6003      	str	r3, [r0, #0]
 8003ba2:	4d2e      	ldr	r5, [pc, #184]	; (8003c5c <pow+0x14c>)
 8003ba4:	e7d9      	b.n	8003b5a <pow+0x4a>
 8003ba6:	4620      	mov	r0, r4
 8003ba8:	4629      	mov	r1, r5
 8003baa:	f000 fe22 	bl	80047f2 <finite>
 8003bae:	bba8      	cbnz	r0, 8003c1c <pow+0x10c>
 8003bb0:	4640      	mov	r0, r8
 8003bb2:	4649      	mov	r1, r9
 8003bb4:	f000 fe1d 	bl	80047f2 <finite>
 8003bb8:	b380      	cbz	r0, 8003c1c <pow+0x10c>
 8003bba:	4630      	mov	r0, r6
 8003bbc:	4639      	mov	r1, r7
 8003bbe:	f000 fe18 	bl	80047f2 <finite>
 8003bc2:	b358      	cbz	r0, 8003c1c <pow+0x10c>
 8003bc4:	4622      	mov	r2, r4
 8003bc6:	462b      	mov	r3, r5
 8003bc8:	4620      	mov	r0, r4
 8003bca:	4629      	mov	r1, r5
 8003bcc:	f7fc ff16 	bl	80009fc <__aeabi_dcmpun>
 8003bd0:	b160      	cbz	r0, 8003bec <pow+0xdc>
 8003bd2:	f7ff ff0f 	bl	80039f4 <__errno>
 8003bd6:	2321      	movs	r3, #33	; 0x21
 8003bd8:	2200      	movs	r2, #0
 8003bda:	6003      	str	r3, [r0, #0]
 8003bdc:	2300      	movs	r3, #0
 8003bde:	4610      	mov	r0, r2
 8003be0:	4619      	mov	r1, r3
 8003be2:	f7fc fd9b 	bl	800071c <__aeabi_ddiv>
 8003be6:	4604      	mov	r4, r0
 8003be8:	460d      	mov	r5, r1
 8003bea:	e7b6      	b.n	8003b5a <pow+0x4a>
 8003bec:	f7ff ff02 	bl	80039f4 <__errno>
 8003bf0:	2322      	movs	r3, #34	; 0x22
 8003bf2:	2200      	movs	r2, #0
 8003bf4:	6003      	str	r3, [r0, #0]
 8003bf6:	4649      	mov	r1, r9
 8003bf8:	2300      	movs	r3, #0
 8003bfa:	4640      	mov	r0, r8
 8003bfc:	f7fc fed6 	bl	80009ac <__aeabi_dcmplt>
 8003c00:	2400      	movs	r4, #0
 8003c02:	b148      	cbz	r0, 8003c18 <pow+0x108>
 8003c04:	4630      	mov	r0, r6
 8003c06:	4639      	mov	r1, r7
 8003c08:	f000 fe00 	bl	800480c <rint>
 8003c0c:	4632      	mov	r2, r6
 8003c0e:	463b      	mov	r3, r7
 8003c10:	f7fc fec2 	bl	8000998 <__aeabi_dcmpeq>
 8003c14:	2800      	cmp	r0, #0
 8003c16:	d0c4      	beq.n	8003ba2 <pow+0x92>
 8003c18:	4d11      	ldr	r5, [pc, #68]	; (8003c60 <pow+0x150>)
 8003c1a:	e79e      	b.n	8003b5a <pow+0x4a>
 8003c1c:	2200      	movs	r2, #0
 8003c1e:	2300      	movs	r3, #0
 8003c20:	4620      	mov	r0, r4
 8003c22:	4629      	mov	r1, r5
 8003c24:	f7fc feb8 	bl	8000998 <__aeabi_dcmpeq>
 8003c28:	2800      	cmp	r0, #0
 8003c2a:	d096      	beq.n	8003b5a <pow+0x4a>
 8003c2c:	4640      	mov	r0, r8
 8003c2e:	4649      	mov	r1, r9
 8003c30:	f000 fddf 	bl	80047f2 <finite>
 8003c34:	2800      	cmp	r0, #0
 8003c36:	d090      	beq.n	8003b5a <pow+0x4a>
 8003c38:	4630      	mov	r0, r6
 8003c3a:	4639      	mov	r1, r7
 8003c3c:	f000 fdd9 	bl	80047f2 <finite>
 8003c40:	2800      	cmp	r0, #0
 8003c42:	d08a      	beq.n	8003b5a <pow+0x4a>
 8003c44:	f7ff fed6 	bl	80039f4 <__errno>
 8003c48:	2322      	movs	r3, #34	; 0x22
 8003c4a:	2400      	movs	r4, #0
 8003c4c:	2500      	movs	r5, #0
 8003c4e:	6003      	str	r3, [r0, #0]
 8003c50:	e783      	b.n	8003b5a <pow+0x4a>
 8003c52:	2400      	movs	r4, #0
 8003c54:	4d03      	ldr	r5, [pc, #12]	; (8003c64 <pow+0x154>)
 8003c56:	e780      	b.n	8003b5a <pow+0x4a>
 8003c58:	20000070 	.word	0x20000070
 8003c5c:	fff00000 	.word	0xfff00000
 8003c60:	7ff00000 	.word	0x7ff00000
 8003c64:	3ff00000 	.word	0x3ff00000

08003c68 <__ieee754_pow>:
 8003c68:	e92d 4ff0 	stmdb	sp!, {r4, r5, r6, r7, r8, r9, sl, fp, lr}
 8003c6c:	b093      	sub	sp, #76	; 0x4c
 8003c6e:	e9cd 2302 	strd	r2, r3, [sp, #8]
 8003c72:	e9dd 2602 	ldrd	r2, r6, [sp, #8]
 8003c76:	f026 4500 	bic.w	r5, r6, #2147483648	; 0x80000000
 8003c7a:	ea55 0302 	orrs.w	r3, r5, r2
 8003c7e:	4607      	mov	r7, r0
 8003c80:	4688      	mov	r8, r1
 8003c82:	f000 84bf 	beq.w	8004604 <__ieee754_pow+0x99c>
 8003c86:	4b7e      	ldr	r3, [pc, #504]	; (8003e80 <__ieee754_pow+0x218>)
 8003c88:	f021 4400 	bic.w	r4, r1, #2147483648	; 0x80000000
 8003c8c:	429c      	cmp	r4, r3
 8003c8e:	4689      	mov	r9, r1
 8003c90:	4682      	mov	sl, r0
 8003c92:	dc09      	bgt.n	8003ca8 <__ieee754_pow+0x40>
 8003c94:	d103      	bne.n	8003c9e <__ieee754_pow+0x36>
 8003c96:	b978      	cbnz	r0, 8003cb8 <__ieee754_pow+0x50>
 8003c98:	42a5      	cmp	r5, r4
 8003c9a:	dd02      	ble.n	8003ca2 <__ieee754_pow+0x3a>
 8003c9c:	e00c      	b.n	8003cb8 <__ieee754_pow+0x50>
 8003c9e:	429d      	cmp	r5, r3
 8003ca0:	dc02      	bgt.n	8003ca8 <__ieee754_pow+0x40>
 8003ca2:	429d      	cmp	r5, r3
 8003ca4:	d10e      	bne.n	8003cc4 <__ieee754_pow+0x5c>
 8003ca6:	b16a      	cbz	r2, 8003cc4 <__ieee754_pow+0x5c>
 8003ca8:	f104 4440 	add.w	r4, r4, #3221225472	; 0xc0000000
 8003cac:	f504 1480 	add.w	r4, r4, #1048576	; 0x100000
 8003cb0:	ea54 030a 	orrs.w	r3, r4, sl
 8003cb4:	f000 84a6 	beq.w	8004604 <__ieee754_pow+0x99c>
 8003cb8:	4872      	ldr	r0, [pc, #456]	; (8003e84 <__ieee754_pow+0x21c>)
 8003cba:	b013      	add	sp, #76	; 0x4c
 8003cbc:	e8bd 4ff0 	ldmia.w	sp!, {r4, r5, r6, r7, r8, r9, sl, fp, lr}
 8003cc0:	f000 bd9e 	b.w	8004800 <nan>
 8003cc4:	f1b9 0f00 	cmp.w	r9, #0
 8003cc8:	da39      	bge.n	8003d3e <__ieee754_pow+0xd6>
 8003cca:	4b6f      	ldr	r3, [pc, #444]	; (8003e88 <__ieee754_pow+0x220>)
 8003ccc:	429d      	cmp	r5, r3
 8003cce:	dc54      	bgt.n	8003d7a <__ieee754_pow+0x112>
 8003cd0:	f1a3 7354 	sub.w	r3, r3, #55574528	; 0x3500000
 8003cd4:	429d      	cmp	r5, r3
 8003cd6:	f340 84a6 	ble.w	8004626 <__ieee754_pow+0x9be>
 8003cda:	152b      	asrs	r3, r5, #20
 8003cdc:	f2a3 33ff 	subw	r3, r3, #1023	; 0x3ff
 8003ce0:	2b14      	cmp	r3, #20
 8003ce2:	dd0f      	ble.n	8003d04 <__ieee754_pow+0x9c>
 8003ce4:	f1c3 0334 	rsb	r3, r3, #52	; 0x34
 8003ce8:	fa22 f103 	lsr.w	r1, r2, r3
 8003cec:	fa01 f303 	lsl.w	r3, r1, r3
 8003cf0:	4293      	cmp	r3, r2
 8003cf2:	f040 8498 	bne.w	8004626 <__ieee754_pow+0x9be>
 8003cf6:	f001 0101 	and.w	r1, r1, #1
 8003cfa:	f1c1 0302 	rsb	r3, r1, #2
 8003cfe:	9300      	str	r3, [sp, #0]
 8003d00:	b182      	cbz	r2, 8003d24 <__ieee754_pow+0xbc>
 8003d02:	e05e      	b.n	8003dc2 <__ieee754_pow+0x15a>
 8003d04:	2a00      	cmp	r2, #0
 8003d06:	d15a      	bne.n	8003dbe <__ieee754_pow+0x156>
 8003d08:	f1c3 0314 	rsb	r3, r3, #20
 8003d0c:	fa45 f103 	asr.w	r1, r5, r3
 8003d10:	fa01 f303 	lsl.w	r3, r1, r3
 8003d14:	42ab      	cmp	r3, r5
 8003d16:	f040 8483 	bne.w	8004620 <__ieee754_pow+0x9b8>
 8003d1a:	f001 0101 	and.w	r1, r1, #1
 8003d1e:	f1c1 0302 	rsb	r3, r1, #2
 8003d22:	9300      	str	r3, [sp, #0]
 8003d24:	4b59      	ldr	r3, [pc, #356]	; (8003e8c <__ieee754_pow+0x224>)
 8003d26:	429d      	cmp	r5, r3
 8003d28:	d130      	bne.n	8003d8c <__ieee754_pow+0x124>
 8003d2a:	2e00      	cmp	r6, #0
 8003d2c:	f280 8474 	bge.w	8004618 <__ieee754_pow+0x9b0>
 8003d30:	463a      	mov	r2, r7
 8003d32:	4643      	mov	r3, r8
 8003d34:	2000      	movs	r0, #0
 8003d36:	4955      	ldr	r1, [pc, #340]	; (8003e8c <__ieee754_pow+0x224>)
 8003d38:	f7fc fcf0 	bl	800071c <__aeabi_ddiv>
 8003d3c:	e02f      	b.n	8003d9e <__ieee754_pow+0x136>
 8003d3e:	2300      	movs	r3, #0
 8003d40:	9300      	str	r3, [sp, #0]
 8003d42:	2a00      	cmp	r2, #0
 8003d44:	d13d      	bne.n	8003dc2 <__ieee754_pow+0x15a>
 8003d46:	4b4e      	ldr	r3, [pc, #312]	; (8003e80 <__ieee754_pow+0x218>)
 8003d48:	429d      	cmp	r5, r3
 8003d4a:	d1eb      	bne.n	8003d24 <__ieee754_pow+0xbc>
 8003d4c:	f104 4340 	add.w	r3, r4, #3221225472	; 0xc0000000
 8003d50:	f503 1380 	add.w	r3, r3, #1048576	; 0x100000
 8003d54:	ea53 030a 	orrs.w	r3, r3, sl
 8003d58:	f000 8454 	beq.w	8004604 <__ieee754_pow+0x99c>
 8003d5c:	4b4c      	ldr	r3, [pc, #304]	; (8003e90 <__ieee754_pow+0x228>)
 8003d5e:	429c      	cmp	r4, r3
 8003d60:	dd0d      	ble.n	8003d7e <__ieee754_pow+0x116>
 8003d62:	2e00      	cmp	r6, #0
 8003d64:	f280 8454 	bge.w	8004610 <__ieee754_pow+0x9a8>
 8003d68:	f04f 0b00 	mov.w	fp, #0
 8003d6c:	f04f 0c00 	mov.w	ip, #0
 8003d70:	4658      	mov	r0, fp
 8003d72:	4661      	mov	r1, ip
 8003d74:	b013      	add	sp, #76	; 0x4c
 8003d76:	e8bd 8ff0 	ldmia.w	sp!, {r4, r5, r6, r7, r8, r9, sl, fp, pc}
 8003d7a:	2302      	movs	r3, #2
 8003d7c:	e7e0      	b.n	8003d40 <__ieee754_pow+0xd8>
 8003d7e:	2e00      	cmp	r6, #0
 8003d80:	daf2      	bge.n	8003d68 <__ieee754_pow+0x100>
 8003d82:	e9dd b302 	ldrd	fp, r3, [sp, #8]
 8003d86:	f103 4c00 	add.w	ip, r3, #2147483648	; 0x80000000
 8003d8a:	e7f1      	b.n	8003d70 <__ieee754_pow+0x108>
 8003d8c:	f1b6 4f80 	cmp.w	r6, #1073741824	; 0x40000000
 8003d90:	d108      	bne.n	8003da4 <__ieee754_pow+0x13c>
 8003d92:	463a      	mov	r2, r7
 8003d94:	4643      	mov	r3, r8
 8003d96:	4638      	mov	r0, r7
 8003d98:	4641      	mov	r1, r8
 8003d9a:	f7fc fb95 	bl	80004c8 <__aeabi_dmul>
 8003d9e:	4683      	mov	fp, r0
 8003da0:	468c      	mov	ip, r1
 8003da2:	e7e5      	b.n	8003d70 <__ieee754_pow+0x108>
 8003da4:	4b3b      	ldr	r3, [pc, #236]	; (8003e94 <__ieee754_pow+0x22c>)
 8003da6:	429e      	cmp	r6, r3
 8003da8:	d10b      	bne.n	8003dc2 <__ieee754_pow+0x15a>
 8003daa:	f1b9 0f00 	cmp.w	r9, #0
 8003dae:	db08      	blt.n	8003dc2 <__ieee754_pow+0x15a>
 8003db0:	4638      	mov	r0, r7
 8003db2:	4641      	mov	r1, r8
 8003db4:	b013      	add	sp, #76	; 0x4c
 8003db6:	e8bd 4ff0 	ldmia.w	sp!, {r4, r5, r6, r7, r8, r9, sl, fp, lr}
 8003dba:	f000 bc6b 	b.w	8004694 <__ieee754_sqrt>
 8003dbe:	2300      	movs	r3, #0
 8003dc0:	9300      	str	r3, [sp, #0]
 8003dc2:	4638      	mov	r0, r7
 8003dc4:	4641      	mov	r1, r8
 8003dc6:	f000 fd11 	bl	80047ec <fabs>
 8003dca:	4683      	mov	fp, r0
 8003dcc:	468c      	mov	ip, r1
 8003dce:	f1ba 0f00 	cmp.w	sl, #0
 8003dd2:	d129      	bne.n	8003e28 <__ieee754_pow+0x1c0>
 8003dd4:	b124      	cbz	r4, 8003de0 <__ieee754_pow+0x178>
 8003dd6:	4b2d      	ldr	r3, [pc, #180]	; (8003e8c <__ieee754_pow+0x224>)
 8003dd8:	f029 4240 	bic.w	r2, r9, #3221225472	; 0xc0000000
 8003ddc:	429a      	cmp	r2, r3
 8003dde:	d123      	bne.n	8003e28 <__ieee754_pow+0x1c0>
 8003de0:	2e00      	cmp	r6, #0
 8003de2:	da07      	bge.n	8003df4 <__ieee754_pow+0x18c>
 8003de4:	465a      	mov	r2, fp
 8003de6:	4663      	mov	r3, ip
 8003de8:	2000      	movs	r0, #0
 8003dea:	4928      	ldr	r1, [pc, #160]	; (8003e8c <__ieee754_pow+0x224>)
 8003dec:	f7fc fc96 	bl	800071c <__aeabi_ddiv>
 8003df0:	4683      	mov	fp, r0
 8003df2:	468c      	mov	ip, r1
 8003df4:	f1b9 0f00 	cmp.w	r9, #0
 8003df8:	daba      	bge.n	8003d70 <__ieee754_pow+0x108>
 8003dfa:	9b00      	ldr	r3, [sp, #0]
 8003dfc:	f104 4440 	add.w	r4, r4, #3221225472	; 0xc0000000
 8003e00:	f504 1480 	add.w	r4, r4, #1048576	; 0x100000
 8003e04:	4323      	orrs	r3, r4
 8003e06:	d108      	bne.n	8003e1a <__ieee754_pow+0x1b2>
 8003e08:	465a      	mov	r2, fp
 8003e0a:	4663      	mov	r3, ip
 8003e0c:	4658      	mov	r0, fp
 8003e0e:	4661      	mov	r1, ip
 8003e10:	f7fc f9a2 	bl	8000158 <__aeabi_dsub>
 8003e14:	4602      	mov	r2, r0
 8003e16:	460b      	mov	r3, r1
 8003e18:	e78e      	b.n	8003d38 <__ieee754_pow+0xd0>
 8003e1a:	9b00      	ldr	r3, [sp, #0]
 8003e1c:	2b01      	cmp	r3, #1
 8003e1e:	d1a7      	bne.n	8003d70 <__ieee754_pow+0x108>
 8003e20:	f10c 4300 	add.w	r3, ip, #2147483648	; 0x80000000
 8003e24:	469c      	mov	ip, r3
 8003e26:	e7a3      	b.n	8003d70 <__ieee754_pow+0x108>
 8003e28:	ea4f 73d9 	mov.w	r3, r9, lsr #31
 8003e2c:	3b01      	subs	r3, #1
 8003e2e:	930c      	str	r3, [sp, #48]	; 0x30
 8003e30:	9a0c      	ldr	r2, [sp, #48]	; 0x30
 8003e32:	9b00      	ldr	r3, [sp, #0]
 8003e34:	4313      	orrs	r3, r2
 8003e36:	d104      	bne.n	8003e42 <__ieee754_pow+0x1da>
 8003e38:	463a      	mov	r2, r7
 8003e3a:	4643      	mov	r3, r8
 8003e3c:	4638      	mov	r0, r7
 8003e3e:	4641      	mov	r1, r8
 8003e40:	e7e6      	b.n	8003e10 <__ieee754_pow+0x1a8>
 8003e42:	4b15      	ldr	r3, [pc, #84]	; (8003e98 <__ieee754_pow+0x230>)
 8003e44:	429d      	cmp	r5, r3
 8003e46:	f340 80f9 	ble.w	800403c <__ieee754_pow+0x3d4>
 8003e4a:	f103 7304 	add.w	r3, r3, #34603008	; 0x2100000
 8003e4e:	429d      	cmp	r5, r3
 8003e50:	4b0f      	ldr	r3, [pc, #60]	; (8003e90 <__ieee754_pow+0x228>)
 8003e52:	dd09      	ble.n	8003e68 <__ieee754_pow+0x200>
 8003e54:	429c      	cmp	r4, r3
 8003e56:	dc0c      	bgt.n	8003e72 <__ieee754_pow+0x20a>
 8003e58:	2e00      	cmp	r6, #0
 8003e5a:	da85      	bge.n	8003d68 <__ieee754_pow+0x100>
 8003e5c:	a306      	add	r3, pc, #24	; (adr r3, 8003e78 <__ieee754_pow+0x210>)
 8003e5e:	e9d3 2300 	ldrd	r2, r3, [r3]
 8003e62:	4610      	mov	r0, r2
 8003e64:	4619      	mov	r1, r3
 8003e66:	e798      	b.n	8003d9a <__ieee754_pow+0x132>
 8003e68:	429c      	cmp	r4, r3
 8003e6a:	dbf5      	blt.n	8003e58 <__ieee754_pow+0x1f0>
 8003e6c:	4b07      	ldr	r3, [pc, #28]	; (8003e8c <__ieee754_pow+0x224>)
 8003e6e:	429c      	cmp	r4, r3
 8003e70:	dd14      	ble.n	8003e9c <__ieee754_pow+0x234>
 8003e72:	2e00      	cmp	r6, #0
 8003e74:	dcf2      	bgt.n	8003e5c <__ieee754_pow+0x1f4>
 8003e76:	e777      	b.n	8003d68 <__ieee754_pow+0x100>
 8003e78:	8800759c 	.word	0x8800759c
 8003e7c:	7e37e43c 	.word	0x7e37e43c
 8003e80:	7ff00000 	.word	0x7ff00000
 8003e84:	08004acc 	.word	0x08004acc
 8003e88:	433fffff 	.word	0x433fffff
 8003e8c:	3ff00000 	.word	0x3ff00000
 8003e90:	3fefffff 	.word	0x3fefffff
 8003e94:	3fe00000 	.word	0x3fe00000
 8003e98:	41e00000 	.word	0x41e00000
 8003e9c:	4661      	mov	r1, ip
 8003e9e:	2200      	movs	r2, #0
 8003ea0:	4658      	mov	r0, fp
 8003ea2:	4b61      	ldr	r3, [pc, #388]	; (8004028 <__ieee754_pow+0x3c0>)
 8003ea4:	f7fc f958 	bl	8000158 <__aeabi_dsub>
 8003ea8:	a355      	add	r3, pc, #340	; (adr r3, 8004000 <__ieee754_pow+0x398>)
 8003eaa:	e9d3 2300 	ldrd	r2, r3, [r3]
 8003eae:	4604      	mov	r4, r0
 8003eb0:	460d      	mov	r5, r1
 8003eb2:	f7fc fb09 	bl	80004c8 <__aeabi_dmul>
 8003eb6:	a354      	add	r3, pc, #336	; (adr r3, 8004008 <__ieee754_pow+0x3a0>)
 8003eb8:	e9d3 2300 	ldrd	r2, r3, [r3]
 8003ebc:	4606      	mov	r6, r0
 8003ebe:	460f      	mov	r7, r1
 8003ec0:	4620      	mov	r0, r4
 8003ec2:	4629      	mov	r1, r5
 8003ec4:	f7fc fb00 	bl	80004c8 <__aeabi_dmul>
 8003ec8:	2200      	movs	r2, #0
 8003eca:	4682      	mov	sl, r0
 8003ecc:	468b      	mov	fp, r1
 8003ece:	4620      	mov	r0, r4
 8003ed0:	4629      	mov	r1, r5
 8003ed2:	4b56      	ldr	r3, [pc, #344]	; (800402c <__ieee754_pow+0x3c4>)
 8003ed4:	f7fc faf8 	bl	80004c8 <__aeabi_dmul>
 8003ed8:	4602      	mov	r2, r0
 8003eda:	460b      	mov	r3, r1
 8003edc:	a14c      	add	r1, pc, #304	; (adr r1, 8004010 <__ieee754_pow+0x3a8>)
 8003ede:	e9d1 0100 	ldrd	r0, r1, [r1]
 8003ee2:	f7fc f939 	bl	8000158 <__aeabi_dsub>
 8003ee6:	4622      	mov	r2, r4
 8003ee8:	462b      	mov	r3, r5
 8003eea:	f7fc faed 	bl	80004c8 <__aeabi_dmul>
 8003eee:	4602      	mov	r2, r0
 8003ef0:	460b      	mov	r3, r1
 8003ef2:	2000      	movs	r0, #0
 8003ef4:	494e      	ldr	r1, [pc, #312]	; (8004030 <__ieee754_pow+0x3c8>)
 8003ef6:	f7fc f92f 	bl	8000158 <__aeabi_dsub>
 8003efa:	4622      	mov	r2, r4
 8003efc:	462b      	mov	r3, r5
 8003efe:	4680      	mov	r8, r0
 8003f00:	4689      	mov	r9, r1
 8003f02:	4620      	mov	r0, r4
 8003f04:	4629      	mov	r1, r5
 8003f06:	f7fc fadf 	bl	80004c8 <__aeabi_dmul>
 8003f0a:	4602      	mov	r2, r0
 8003f0c:	460b      	mov	r3, r1
 8003f0e:	4640      	mov	r0, r8
 8003f10:	4649      	mov	r1, r9
 8003f12:	f7fc fad9 	bl	80004c8 <__aeabi_dmul>
 8003f16:	a340      	add	r3, pc, #256	; (adr r3, 8004018 <__ieee754_pow+0x3b0>)
 8003f18:	e9d3 2300 	ldrd	r2, r3, [r3]
 8003f1c:	f7fc fad4 	bl	80004c8 <__aeabi_dmul>
 8003f20:	4602      	mov	r2, r0
 8003f22:	460b      	mov	r3, r1
 8003f24:	4650      	mov	r0, sl
 8003f26:	4659      	mov	r1, fp
 8003f28:	f7fc f916 	bl	8000158 <__aeabi_dsub>
 8003f2c:	f04f 0a00 	mov.w	sl, #0
 8003f30:	4602      	mov	r2, r0
 8003f32:	460b      	mov	r3, r1
 8003f34:	4604      	mov	r4, r0
 8003f36:	460d      	mov	r5, r1
 8003f38:	4630      	mov	r0, r6
 8003f3a:	4639      	mov	r1, r7
 8003f3c:	f7fc f90e 	bl	800015c <__adddf3>
 8003f40:	4632      	mov	r2, r6
 8003f42:	463b      	mov	r3, r7
 8003f44:	4650      	mov	r0, sl
 8003f46:	468b      	mov	fp, r1
 8003f48:	f7fc f906 	bl	8000158 <__aeabi_dsub>
 8003f4c:	4602      	mov	r2, r0
 8003f4e:	460b      	mov	r3, r1
 8003f50:	4620      	mov	r0, r4
 8003f52:	4629      	mov	r1, r5
 8003f54:	f7fc f900 	bl	8000158 <__aeabi_dsub>
 8003f58:	e9dd 6702 	ldrd	r6, r7, [sp, #8]
 8003f5c:	9b00      	ldr	r3, [sp, #0]
 8003f5e:	9a0c      	ldr	r2, [sp, #48]	; 0x30
 8003f60:	3b01      	subs	r3, #1
 8003f62:	4313      	orrs	r3, r2
 8003f64:	f04f 0600 	mov.w	r6, #0
 8003f68:	f04f 0200 	mov.w	r2, #0
 8003f6c:	bf0c      	ite	eq
 8003f6e:	4b31      	ldreq	r3, [pc, #196]	; (8004034 <__ieee754_pow+0x3cc>)
 8003f70:	4b2d      	ldrne	r3, [pc, #180]	; (8004028 <__ieee754_pow+0x3c0>)
 8003f72:	4604      	mov	r4, r0
 8003f74:	460d      	mov	r5, r1
 8003f76:	e9dd 0102 	ldrd	r0, r1, [sp, #8]
 8003f7a:	e9cd 2300 	strd	r2, r3, [sp]
 8003f7e:	4632      	mov	r2, r6
 8003f80:	463b      	mov	r3, r7
 8003f82:	f7fc f8e9 	bl	8000158 <__aeabi_dsub>
 8003f86:	4652      	mov	r2, sl
 8003f88:	465b      	mov	r3, fp
 8003f8a:	f7fc fa9d 	bl	80004c8 <__aeabi_dmul>
 8003f8e:	e9dd 2302 	ldrd	r2, r3, [sp, #8]
 8003f92:	4680      	mov	r8, r0
 8003f94:	4689      	mov	r9, r1
 8003f96:	4620      	mov	r0, r4
 8003f98:	4629      	mov	r1, r5
 8003f9a:	f7fc fa95 	bl	80004c8 <__aeabi_dmul>
 8003f9e:	4602      	mov	r2, r0
 8003fa0:	460b      	mov	r3, r1
 8003fa2:	4640      	mov	r0, r8
 8003fa4:	4649      	mov	r1, r9
 8003fa6:	f7fc f8d9 	bl	800015c <__adddf3>
 8003faa:	4632      	mov	r2, r6
 8003fac:	463b      	mov	r3, r7
 8003fae:	4680      	mov	r8, r0
 8003fb0:	4689      	mov	r9, r1
 8003fb2:	4650      	mov	r0, sl
 8003fb4:	4659      	mov	r1, fp
 8003fb6:	f7fc fa87 	bl	80004c8 <__aeabi_dmul>
 8003fba:	4604      	mov	r4, r0
 8003fbc:	460d      	mov	r5, r1
 8003fbe:	460b      	mov	r3, r1
 8003fc0:	4602      	mov	r2, r0
 8003fc2:	4649      	mov	r1, r9
 8003fc4:	4640      	mov	r0, r8
 8003fc6:	e9cd 4502 	strd	r4, r5, [sp, #8]
 8003fca:	f7fc f8c7 	bl	800015c <__adddf3>
 8003fce:	4b1a      	ldr	r3, [pc, #104]	; (8004038 <__ieee754_pow+0x3d0>)
 8003fd0:	4682      	mov	sl, r0
 8003fd2:	4299      	cmp	r1, r3
 8003fd4:	460f      	mov	r7, r1
 8003fd6:	460e      	mov	r6, r1
 8003fd8:	f340 82ed 	ble.w	80045b6 <__ieee754_pow+0x94e>
 8003fdc:	f101 433f 	add.w	r3, r1, #3204448256	; 0xbf000000
 8003fe0:	f503 03e0 	add.w	r3, r3, #7340032	; 0x700000
 8003fe4:	4303      	orrs	r3, r0
 8003fe6:	f000 81e7 	beq.w	80043b8 <__ieee754_pow+0x750>
 8003fea:	a30d      	add	r3, pc, #52	; (adr r3, 8004020 <__ieee754_pow+0x3b8>)
 8003fec:	e9d3 2300 	ldrd	r2, r3, [r3]
 8003ff0:	e9dd 0100 	ldrd	r0, r1, [sp]
 8003ff4:	f7fc fa68 	bl	80004c8 <__aeabi_dmul>
 8003ff8:	a309      	add	r3, pc, #36	; (adr r3, 8004020 <__ieee754_pow+0x3b8>)
 8003ffa:	e9d3 2300 	ldrd	r2, r3, [r3]
 8003ffe:	e6cc      	b.n	8003d9a <__ieee754_pow+0x132>
 8004000:	60000000 	.word	0x60000000
 8004004:	3ff71547 	.word	0x3ff71547
 8004008:	f85ddf44 	.word	0xf85ddf44
 800400c:	3e54ae0b 	.word	0x3e54ae0b
 8004010:	55555555 	.word	0x55555555
 8004014:	3fd55555 	.word	0x3fd55555
 8004018:	652b82fe 	.word	0x652b82fe
 800401c:	3ff71547 	.word	0x3ff71547
 8004020:	8800759c 	.word	0x8800759c
 8004024:	7e37e43c 	.word	0x7e37e43c
 8004028:	3ff00000 	.word	0x3ff00000
 800402c:	3fd00000 	.word	0x3fd00000
 8004030:	3fe00000 	.word	0x3fe00000
 8004034:	bff00000 	.word	0xbff00000
 8004038:	408fffff 	.word	0x408fffff
 800403c:	4bd4      	ldr	r3, [pc, #848]	; (8004390 <__ieee754_pow+0x728>)
 800403e:	2200      	movs	r2, #0
 8004040:	ea09 0303 	and.w	r3, r9, r3
 8004044:	b943      	cbnz	r3, 8004058 <__ieee754_pow+0x3f0>
 8004046:	4658      	mov	r0, fp
 8004048:	4661      	mov	r1, ip
 800404a:	4bd2      	ldr	r3, [pc, #840]	; (8004394 <__ieee754_pow+0x72c>)
 800404c:	f7fc fa3c 	bl	80004c8 <__aeabi_dmul>
 8004050:	f06f 0234 	mvn.w	r2, #52	; 0x34
 8004054:	4683      	mov	fp, r0
 8004056:	460c      	mov	r4, r1
 8004058:	1523      	asrs	r3, r4, #20
 800405a:	f2a3 33ff 	subw	r3, r3, #1023	; 0x3ff
 800405e:	4413      	add	r3, r2
 8004060:	930b      	str	r3, [sp, #44]	; 0x2c
 8004062:	4bcd      	ldr	r3, [pc, #820]	; (8004398 <__ieee754_pow+0x730>)
 8004064:	f3c4 0413 	ubfx	r4, r4, #0, #20
 8004068:	f044 557f 	orr.w	r5, r4, #1069547520	; 0x3fc00000
 800406c:	429c      	cmp	r4, r3
 800406e:	f445 1540 	orr.w	r5, r5, #3145728	; 0x300000
 8004072:	dd08      	ble.n	8004086 <__ieee754_pow+0x41e>
 8004074:	4bc9      	ldr	r3, [pc, #804]	; (800439c <__ieee754_pow+0x734>)
 8004076:	429c      	cmp	r4, r3
 8004078:	f340 819c 	ble.w	80043b4 <__ieee754_pow+0x74c>
 800407c:	9b0b      	ldr	r3, [sp, #44]	; 0x2c
 800407e:	f5a5 1580 	sub.w	r5, r5, #1048576	; 0x100000
 8004082:	3301      	adds	r3, #1
 8004084:	930b      	str	r3, [sp, #44]	; 0x2c
 8004086:	2600      	movs	r6, #0
 8004088:	00f3      	lsls	r3, r6, #3
 800408a:	930d      	str	r3, [sp, #52]	; 0x34
 800408c:	4bc4      	ldr	r3, [pc, #784]	; (80043a0 <__ieee754_pow+0x738>)
 800408e:	4658      	mov	r0, fp
 8004090:	eb03 03c6 	add.w	r3, r3, r6, lsl #3
 8004094:	e9d3 3400 	ldrd	r3, r4, [r3]
 8004098:	4629      	mov	r1, r5
 800409a:	461a      	mov	r2, r3
 800409c:	e9cd 3408 	strd	r3, r4, [sp, #32]
 80040a0:	4623      	mov	r3, r4
 80040a2:	f7fc f859 	bl	8000158 <__aeabi_dsub>
 80040a6:	46da      	mov	sl, fp
 80040a8:	462b      	mov	r3, r5
 80040aa:	4652      	mov	r2, sl
 80040ac:	e9cd 010e 	strd	r0, r1, [sp, #56]	; 0x38
 80040b0:	e9dd 0108 	ldrd	r0, r1, [sp, #32]
 80040b4:	f7fc f852 	bl	800015c <__adddf3>
 80040b8:	4602      	mov	r2, r0
 80040ba:	460b      	mov	r3, r1
 80040bc:	2000      	movs	r0, #0
 80040be:	49b9      	ldr	r1, [pc, #740]	; (80043a4 <__ieee754_pow+0x73c>)
 80040c0:	f7fc fb2c 	bl	800071c <__aeabi_ddiv>
 80040c4:	4602      	mov	r2, r0
 80040c6:	460b      	mov	r3, r1
 80040c8:	e9cd 0110 	strd	r0, r1, [sp, #64]	; 0x40
 80040cc:	e9dd 010e 	ldrd	r0, r1, [sp, #56]	; 0x38
 80040d0:	f7fc f9fa 	bl	80004c8 <__aeabi_dmul>
 80040d4:	e9cd 0106 	strd	r0, r1, [sp, #24]
 80040d8:	e9dd 3406 	ldrd	r3, r4, [sp, #24]
 80040dc:	e9cd 3404 	strd	r3, r4, [sp, #16]
 80040e0:	2300      	movs	r3, #0
 80040e2:	2200      	movs	r2, #0
 80040e4:	46ab      	mov	fp, r5
 80040e6:	106d      	asrs	r5, r5, #1
 80040e8:	f045 5500 	orr.w	r5, r5, #536870912	; 0x20000000
 80040ec:	9304      	str	r3, [sp, #16]
 80040ee:	f505 2500 	add.w	r5, r5, #524288	; 0x80000
 80040f2:	e9dd 8904 	ldrd	r8, r9, [sp, #16]
 80040f6:	eb05 4386 	add.w	r3, r5, r6, lsl #18
 80040fa:	4640      	mov	r0, r8
 80040fc:	4649      	mov	r1, r9
 80040fe:	4614      	mov	r4, r2
 8004100:	461d      	mov	r5, r3
 8004102:	f7fc f9e1 	bl	80004c8 <__aeabi_dmul>
 8004106:	4602      	mov	r2, r0
 8004108:	460b      	mov	r3, r1
 800410a:	e9dd 010e 	ldrd	r0, r1, [sp, #56]	; 0x38
 800410e:	f7fc f823 	bl	8000158 <__aeabi_dsub>
 8004112:	e9dd 2308 	ldrd	r2, r3, [sp, #32]
 8004116:	4606      	mov	r6, r0
 8004118:	460f      	mov	r7, r1
 800411a:	4620      	mov	r0, r4
 800411c:	4629      	mov	r1, r5
 800411e:	f7fc f81b 	bl	8000158 <__aeabi_dsub>
 8004122:	4602      	mov	r2, r0
 8004124:	460b      	mov	r3, r1
 8004126:	4650      	mov	r0, sl
 8004128:	4659      	mov	r1, fp
 800412a:	f7fc f815 	bl	8000158 <__aeabi_dsub>
 800412e:	4642      	mov	r2, r8
 8004130:	464b      	mov	r3, r9
 8004132:	f7fc f9c9 	bl	80004c8 <__aeabi_dmul>
 8004136:	4602      	mov	r2, r0
 8004138:	460b      	mov	r3, r1
 800413a:	4630      	mov	r0, r6
 800413c:	4639      	mov	r1, r7
 800413e:	f7fc f80b 	bl	8000158 <__aeabi_dsub>
 8004142:	e9dd 2310 	ldrd	r2, r3, [sp, #64]	; 0x40
 8004146:	f7fc f9bf 	bl	80004c8 <__aeabi_dmul>
 800414a:	e9dd 2306 	ldrd	r2, r3, [sp, #24]
 800414e:	e9cd 0108 	strd	r0, r1, [sp, #32]
 8004152:	4610      	mov	r0, r2
 8004154:	4619      	mov	r1, r3
 8004156:	f7fc f9b7 	bl	80004c8 <__aeabi_dmul>
 800415a:	a37b      	add	r3, pc, #492	; (adr r3, 8004348 <__ieee754_pow+0x6e0>)
 800415c:	e9d3 2300 	ldrd	r2, r3, [r3]
 8004160:	4604      	mov	r4, r0
 8004162:	460d      	mov	r5, r1
 8004164:	f7fc f9b0 	bl	80004c8 <__aeabi_dmul>
 8004168:	a379      	add	r3, pc, #484	; (adr r3, 8004350 <__ieee754_pow+0x6e8>)
 800416a:	e9d3 2300 	ldrd	r2, r3, [r3]
 800416e:	f7fb fff5 	bl	800015c <__adddf3>
 8004172:	4622      	mov	r2, r4
 8004174:	462b      	mov	r3, r5
 8004176:	f7fc f9a7 	bl	80004c8 <__aeabi_dmul>
 800417a:	a377      	add	r3, pc, #476	; (adr r3, 8004358 <__ieee754_pow+0x6f0>)
 800417c:	e9d3 2300 	ldrd	r2, r3, [r3]
 8004180:	f7fb ffec 	bl	800015c <__adddf3>
 8004184:	4622      	mov	r2, r4
 8004186:	462b      	mov	r3, r5
 8004188:	f7fc f99e 	bl	80004c8 <__aeabi_dmul>
 800418c:	a374      	add	r3, pc, #464	; (adr r3, 8004360 <__ieee754_pow+0x6f8>)
 800418e:	e9d3 2300 	ldrd	r2, r3, [r3]
 8004192:	f7fb ffe3 	bl	800015c <__adddf3>
 8004196:	4622      	mov	r2, r4
 8004198:	462b      	mov	r3, r5
 800419a:	f7fc f995 	bl	80004c8 <__aeabi_dmul>
 800419e:	a372      	add	r3, pc, #456	; (adr r3, 8004368 <__ieee754_pow+0x700>)
 80041a0:	e9d3 2300 	ldrd	r2, r3, [r3]
 80041a4:	f7fb ffda 	bl	800015c <__adddf3>
 80041a8:	4622      	mov	r2, r4
 80041aa:	462b      	mov	r3, r5
 80041ac:	f7fc f98c 	bl	80004c8 <__aeabi_dmul>
 80041b0:	a36f      	add	r3, pc, #444	; (adr r3, 8004370 <__ieee754_pow+0x708>)
 80041b2:	e9d3 2300 	ldrd	r2, r3, [r3]
 80041b6:	f7fb ffd1 	bl	800015c <__adddf3>
 80041ba:	4622      	mov	r2, r4
 80041bc:	4606      	mov	r6, r0
 80041be:	460f      	mov	r7, r1
 80041c0:	462b      	mov	r3, r5
 80041c2:	4620      	mov	r0, r4
 80041c4:	4629      	mov	r1, r5
 80041c6:	f7fc f97f 	bl	80004c8 <__aeabi_dmul>
 80041ca:	4602      	mov	r2, r0
 80041cc:	460b      	mov	r3, r1
 80041ce:	4630      	mov	r0, r6
 80041d0:	4639      	mov	r1, r7
 80041d2:	f7fc f979 	bl	80004c8 <__aeabi_dmul>
 80041d6:	4604      	mov	r4, r0
 80041d8:	460d      	mov	r5, r1
 80041da:	e9dd 0106 	ldrd	r0, r1, [sp, #24]
 80041de:	4642      	mov	r2, r8
 80041e0:	464b      	mov	r3, r9
 80041e2:	f7fb ffbb 	bl	800015c <__adddf3>
 80041e6:	e9dd 2308 	ldrd	r2, r3, [sp, #32]
 80041ea:	f7fc f96d 	bl	80004c8 <__aeabi_dmul>
 80041ee:	4622      	mov	r2, r4
 80041f0:	462b      	mov	r3, r5
 80041f2:	f7fb ffb3 	bl	800015c <__adddf3>
 80041f6:	4642      	mov	r2, r8
 80041f8:	4606      	mov	r6, r0
 80041fa:	460f      	mov	r7, r1
 80041fc:	464b      	mov	r3, r9
 80041fe:	4640      	mov	r0, r8
 8004200:	4649      	mov	r1, r9
 8004202:	f7fc f961 	bl	80004c8 <__aeabi_dmul>
 8004206:	2200      	movs	r2, #0
 8004208:	4b67      	ldr	r3, [pc, #412]	; (80043a8 <__ieee754_pow+0x740>)
 800420a:	4682      	mov	sl, r0
 800420c:	468b      	mov	fp, r1
 800420e:	f7fb ffa5 	bl	800015c <__adddf3>
 8004212:	4632      	mov	r2, r6
 8004214:	463b      	mov	r3, r7
 8004216:	f7fb ffa1 	bl	800015c <__adddf3>
 800421a:	9c04      	ldr	r4, [sp, #16]
 800421c:	460d      	mov	r5, r1
 800421e:	4622      	mov	r2, r4
 8004220:	460b      	mov	r3, r1
 8004222:	4640      	mov	r0, r8
 8004224:	4649      	mov	r1, r9
 8004226:	f7fc f94f 	bl	80004c8 <__aeabi_dmul>
 800422a:	2200      	movs	r2, #0
 800422c:	4680      	mov	r8, r0
 800422e:	4689      	mov	r9, r1
 8004230:	4620      	mov	r0, r4
 8004232:	4629      	mov	r1, r5
 8004234:	4b5c      	ldr	r3, [pc, #368]	; (80043a8 <__ieee754_pow+0x740>)
 8004236:	f7fb ff8f 	bl	8000158 <__aeabi_dsub>
 800423a:	4652      	mov	r2, sl
 800423c:	465b      	mov	r3, fp
 800423e:	f7fb ff8b 	bl	8000158 <__aeabi_dsub>
 8004242:	4602      	mov	r2, r0
 8004244:	460b      	mov	r3, r1
 8004246:	4630      	mov	r0, r6
 8004248:	4639      	mov	r1, r7
 800424a:	f7fb ff85 	bl	8000158 <__aeabi_dsub>
 800424e:	e9dd 2306 	ldrd	r2, r3, [sp, #24]
 8004252:	f7fc f939 	bl	80004c8 <__aeabi_dmul>
 8004256:	4622      	mov	r2, r4
 8004258:	4606      	mov	r6, r0
 800425a:	460f      	mov	r7, r1
 800425c:	e9dd 0108 	ldrd	r0, r1, [sp, #32]
 8004260:	462b      	mov	r3, r5
 8004262:	f7fc f931 	bl	80004c8 <__aeabi_dmul>
 8004266:	4602      	mov	r2, r0
 8004268:	460b      	mov	r3, r1
 800426a:	4630      	mov	r0, r6
 800426c:	4639      	mov	r1, r7
 800426e:	f7fb ff75 	bl	800015c <__adddf3>
 8004272:	4606      	mov	r6, r0
 8004274:	460f      	mov	r7, r1
 8004276:	4602      	mov	r2, r0
 8004278:	460b      	mov	r3, r1
 800427a:	4640      	mov	r0, r8
 800427c:	4649      	mov	r1, r9
 800427e:	f7fb ff6d 	bl	800015c <__adddf3>
 8004282:	a33d      	add	r3, pc, #244	; (adr r3, 8004378 <__ieee754_pow+0x710>)
 8004284:	e9d3 2300 	ldrd	r2, r3, [r3]
 8004288:	9c04      	ldr	r4, [sp, #16]
 800428a:	460d      	mov	r5, r1
 800428c:	4620      	mov	r0, r4
 800428e:	f7fc f91b 	bl	80004c8 <__aeabi_dmul>
 8004292:	4642      	mov	r2, r8
 8004294:	464b      	mov	r3, r9
 8004296:	e9cd 0106 	strd	r0, r1, [sp, #24]
 800429a:	4620      	mov	r0, r4
 800429c:	4629      	mov	r1, r5
 800429e:	f7fb ff5b 	bl	8000158 <__aeabi_dsub>
 80042a2:	4602      	mov	r2, r0
 80042a4:	460b      	mov	r3, r1
 80042a6:	4630      	mov	r0, r6
 80042a8:	4639      	mov	r1, r7
 80042aa:	f7fb ff55 	bl	8000158 <__aeabi_dsub>
 80042ae:	a334      	add	r3, pc, #208	; (adr r3, 8004380 <__ieee754_pow+0x718>)
 80042b0:	e9d3 2300 	ldrd	r2, r3, [r3]
 80042b4:	f7fc f908 	bl	80004c8 <__aeabi_dmul>
 80042b8:	a333      	add	r3, pc, #204	; (adr r3, 8004388 <__ieee754_pow+0x720>)
 80042ba:	e9d3 2300 	ldrd	r2, r3, [r3]
 80042be:	4606      	mov	r6, r0
 80042c0:	460f      	mov	r7, r1
 80042c2:	4620      	mov	r0, r4
 80042c4:	4629      	mov	r1, r5
 80042c6:	f7fc f8ff 	bl	80004c8 <__aeabi_dmul>
 80042ca:	4602      	mov	r2, r0
 80042cc:	460b      	mov	r3, r1
 80042ce:	4630      	mov	r0, r6
 80042d0:	4639      	mov	r1, r7
 80042d2:	f7fb ff43 	bl	800015c <__adddf3>
 80042d6:	9a0d      	ldr	r2, [sp, #52]	; 0x34
 80042d8:	4b34      	ldr	r3, [pc, #208]	; (80043ac <__ieee754_pow+0x744>)
 80042da:	4413      	add	r3, r2
 80042dc:	e9d3 2300 	ldrd	r2, r3, [r3]
 80042e0:	f7fb ff3c 	bl	800015c <__adddf3>
 80042e4:	4680      	mov	r8, r0
 80042e6:	980b      	ldr	r0, [sp, #44]	; 0x2c
 80042e8:	4689      	mov	r9, r1
 80042ea:	f7fc f883 	bl	80003f4 <__aeabi_i2d>
 80042ee:	4604      	mov	r4, r0
 80042f0:	460d      	mov	r5, r1
 80042f2:	9a0d      	ldr	r2, [sp, #52]	; 0x34
 80042f4:	4b2e      	ldr	r3, [pc, #184]	; (80043b0 <__ieee754_pow+0x748>)
 80042f6:	e9dd 0106 	ldrd	r0, r1, [sp, #24]
 80042fa:	4413      	add	r3, r2
 80042fc:	e9d3 6700 	ldrd	r6, r7, [r3]
 8004300:	4642      	mov	r2, r8
 8004302:	464b      	mov	r3, r9
 8004304:	f7fb ff2a 	bl	800015c <__adddf3>
 8004308:	4632      	mov	r2, r6
 800430a:	463b      	mov	r3, r7
 800430c:	f7fb ff26 	bl	800015c <__adddf3>
 8004310:	4622      	mov	r2, r4
 8004312:	462b      	mov	r3, r5
 8004314:	f7fb ff22 	bl	800015c <__adddf3>
 8004318:	f8dd a010 	ldr.w	sl, [sp, #16]
 800431c:	4622      	mov	r2, r4
 800431e:	462b      	mov	r3, r5
 8004320:	4650      	mov	r0, sl
 8004322:	468b      	mov	fp, r1
 8004324:	f7fb ff18 	bl	8000158 <__aeabi_dsub>
 8004328:	4632      	mov	r2, r6
 800432a:	463b      	mov	r3, r7
 800432c:	f7fb ff14 	bl	8000158 <__aeabi_dsub>
 8004330:	e9dd 2306 	ldrd	r2, r3, [sp, #24]
 8004334:	f7fb ff10 	bl	8000158 <__aeabi_dsub>
 8004338:	4602      	mov	r2, r0
 800433a:	460b      	mov	r3, r1
 800433c:	4640      	mov	r0, r8
 800433e:	4649      	mov	r1, r9
 8004340:	e608      	b.n	8003f54 <__ieee754_pow+0x2ec>
 8004342:	bf00      	nop
 8004344:	f3af 8000 	nop.w
 8004348:	4a454eef 	.word	0x4a454eef
 800434c:	3fca7e28 	.word	0x3fca7e28
 8004350:	93c9db65 	.word	0x93c9db65
 8004354:	3fcd864a 	.word	0x3fcd864a
 8004358:	a91d4101 	.word	0xa91d4101
 800435c:	3fd17460 	.word	0x3fd17460
 8004360:	518f264d 	.word	0x518f264d
 8004364:	3fd55555 	.word	0x3fd55555
 8004368:	db6fabff 	.word	0xdb6fabff
 800436c:	3fdb6db6 	.word	0x3fdb6db6
 8004370:	33333303 	.word	0x33333303
 8004374:	3fe33333 	.word	0x3fe33333
 8004378:	e0000000 	.word	0xe0000000
 800437c:	3feec709 	.word	0x3feec709
 8004380:	dc3a03fd 	.word	0xdc3a03fd
 8004384:	3feec709 	.word	0x3feec709
 8004388:	145b01f5 	.word	0x145b01f5
 800438c:	be3e2fe0 	.word	0xbe3e2fe0
 8004390:	7ff00000 	.word	0x7ff00000
 8004394:	43400000 	.word	0x43400000
 8004398:	0003988e 	.word	0x0003988e
 800439c:	000bb679 	.word	0x000bb679
 80043a0:	08004ad0 	.word	0x08004ad0
 80043a4:	3ff00000 	.word	0x3ff00000
 80043a8:	40080000 	.word	0x40080000
 80043ac:	08004af0 	.word	0x08004af0
 80043b0:	08004ae0 	.word	0x08004ae0
 80043b4:	2601      	movs	r6, #1
 80043b6:	e667      	b.n	8004088 <__ieee754_pow+0x420>
 80043b8:	a39d      	add	r3, pc, #628	; (adr r3, 8004630 <__ieee754_pow+0x9c8>)
 80043ba:	e9d3 2300 	ldrd	r2, r3, [r3]
 80043be:	4640      	mov	r0, r8
 80043c0:	4649      	mov	r1, r9
 80043c2:	f7fb fecb 	bl	800015c <__adddf3>
 80043c6:	4622      	mov	r2, r4
 80043c8:	e9cd 0104 	strd	r0, r1, [sp, #16]
 80043cc:	462b      	mov	r3, r5
 80043ce:	4650      	mov	r0, sl
 80043d0:	4639      	mov	r1, r7
 80043d2:	f7fb fec1 	bl	8000158 <__aeabi_dsub>
 80043d6:	4602      	mov	r2, r0
 80043d8:	460b      	mov	r3, r1
 80043da:	e9dd 0104 	ldrd	r0, r1, [sp, #16]
 80043de:	f7fc fb03 	bl	80009e8 <__aeabi_dcmpgt>
 80043e2:	2800      	cmp	r0, #0
 80043e4:	f47f ae01 	bne.w	8003fea <__ieee754_pow+0x382>
 80043e8:	4aa5      	ldr	r2, [pc, #660]	; (8004680 <__ieee754_pow+0xa18>)
 80043ea:	f026 4300 	bic.w	r3, r6, #2147483648	; 0x80000000
 80043ee:	4293      	cmp	r3, r2
 80043f0:	f340 8103 	ble.w	80045fa <__ieee754_pow+0x992>
 80043f4:	f44f 1a80 	mov.w	sl, #1048576	; 0x100000
 80043f8:	2000      	movs	r0, #0
 80043fa:	151b      	asrs	r3, r3, #20
 80043fc:	f2a3 33fe 	subw	r3, r3, #1022	; 0x3fe
 8004400:	fa4a f303 	asr.w	r3, sl, r3
 8004404:	4433      	add	r3, r6
 8004406:	f3c3 520a 	ubfx	r2, r3, #20, #11
 800440a:	4f9e      	ldr	r7, [pc, #632]	; (8004684 <__ieee754_pow+0xa1c>)
 800440c:	f2a2 32ff 	subw	r2, r2, #1023	; 0x3ff
 8004410:	4117      	asrs	r7, r2
 8004412:	f3c3 0a13 	ubfx	sl, r3, #0, #20
 8004416:	ea23 0107 	bic.w	r1, r3, r7
 800441a:	f1c2 0214 	rsb	r2, r2, #20
 800441e:	f44a 1a80 	orr.w	sl, sl, #1048576	; 0x100000
 8004422:	460b      	mov	r3, r1
 8004424:	fa4a fa02 	asr.w	sl, sl, r2
 8004428:	2e00      	cmp	r6, #0
 800442a:	4602      	mov	r2, r0
 800442c:	4629      	mov	r1, r5
 800442e:	4620      	mov	r0, r4
 8004430:	bfb8      	it	lt
 8004432:	f1ca 0a00 	rsblt	sl, sl, #0
 8004436:	f7fb fe8f 	bl	8000158 <__aeabi_dsub>
 800443a:	e9cd 0102 	strd	r0, r1, [sp, #8]
 800443e:	e9dd 0102 	ldrd	r0, r1, [sp, #8]
 8004442:	2400      	movs	r4, #0
 8004444:	4642      	mov	r2, r8
 8004446:	464b      	mov	r3, r9
 8004448:	f7fb fe88 	bl	800015c <__adddf3>
 800444c:	a37a      	add	r3, pc, #488	; (adr r3, 8004638 <__ieee754_pow+0x9d0>)
 800444e:	e9d3 2300 	ldrd	r2, r3, [r3]
 8004452:	4620      	mov	r0, r4
 8004454:	460d      	mov	r5, r1
 8004456:	f7fc f837 	bl	80004c8 <__aeabi_dmul>
 800445a:	e9dd 2302 	ldrd	r2, r3, [sp, #8]
 800445e:	4606      	mov	r6, r0
 8004460:	460f      	mov	r7, r1
 8004462:	4620      	mov	r0, r4
 8004464:	4629      	mov	r1, r5
 8004466:	f7fb fe77 	bl	8000158 <__aeabi_dsub>
 800446a:	4602      	mov	r2, r0
 800446c:	460b      	mov	r3, r1
 800446e:	4640      	mov	r0, r8
 8004470:	4649      	mov	r1, r9
 8004472:	f7fb fe71 	bl	8000158 <__aeabi_dsub>
 8004476:	a372      	add	r3, pc, #456	; (adr r3, 8004640 <__ieee754_pow+0x9d8>)
 8004478:	e9d3 2300 	ldrd	r2, r3, [r3]
 800447c:	f7fc f824 	bl	80004c8 <__aeabi_dmul>
 8004480:	a371      	add	r3, pc, #452	; (adr r3, 8004648 <__ieee754_pow+0x9e0>)
 8004482:	e9d3 2300 	ldrd	r2, r3, [r3]
 8004486:	4680      	mov	r8, r0
 8004488:	4689      	mov	r9, r1
 800448a:	4620      	mov	r0, r4
 800448c:	4629      	mov	r1, r5
 800448e:	f7fc f81b 	bl	80004c8 <__aeabi_dmul>
 8004492:	4602      	mov	r2, r0
 8004494:	460b      	mov	r3, r1
 8004496:	4640      	mov	r0, r8
 8004498:	4649      	mov	r1, r9
 800449a:	f7fb fe5f 	bl	800015c <__adddf3>
 800449e:	4604      	mov	r4, r0
 80044a0:	460d      	mov	r5, r1
 80044a2:	4602      	mov	r2, r0
 80044a4:	460b      	mov	r3, r1
 80044a6:	4630      	mov	r0, r6
 80044a8:	4639      	mov	r1, r7
 80044aa:	f7fb fe57 	bl	800015c <__adddf3>
 80044ae:	4632      	mov	r2, r6
 80044b0:	463b      	mov	r3, r7
 80044b2:	4680      	mov	r8, r0
 80044b4:	4689      	mov	r9, r1
 80044b6:	f7fb fe4f 	bl	8000158 <__aeabi_dsub>
 80044ba:	4602      	mov	r2, r0
 80044bc:	460b      	mov	r3, r1
 80044be:	4620      	mov	r0, r4
 80044c0:	4629      	mov	r1, r5
 80044c2:	f7fb fe49 	bl	8000158 <__aeabi_dsub>
 80044c6:	4642      	mov	r2, r8
 80044c8:	4606      	mov	r6, r0
 80044ca:	460f      	mov	r7, r1
 80044cc:	464b      	mov	r3, r9
 80044ce:	4640      	mov	r0, r8
 80044d0:	4649      	mov	r1, r9
 80044d2:	f7fb fff9 	bl	80004c8 <__aeabi_dmul>
 80044d6:	a35e      	add	r3, pc, #376	; (adr r3, 8004650 <__ieee754_pow+0x9e8>)
 80044d8:	e9d3 2300 	ldrd	r2, r3, [r3]
 80044dc:	4604      	mov	r4, r0
 80044de:	460d      	mov	r5, r1
 80044e0:	f7fb fff2 	bl	80004c8 <__aeabi_dmul>
 80044e4:	a35c      	add	r3, pc, #368	; (adr r3, 8004658 <__ieee754_pow+0x9f0>)
 80044e6:	e9d3 2300 	ldrd	r2, r3, [r3]
 80044ea:	f7fb fe35 	bl	8000158 <__aeabi_dsub>
 80044ee:	4622      	mov	r2, r4
 80044f0:	462b      	mov	r3, r5
 80044f2:	f7fb ffe9 	bl	80004c8 <__aeabi_dmul>
 80044f6:	a35a      	add	r3, pc, #360	; (adr r3, 8004660 <__ieee754_pow+0x9f8>)
 80044f8:	e9d3 2300 	ldrd	r2, r3, [r3]
 80044fc:	f7fb fe2e 	bl	800015c <__adddf3>
 8004500:	4622      	mov	r2, r4
 8004502:	462b      	mov	r3, r5
 8004504:	f7fb ffe0 	bl	80004c8 <__aeabi_dmul>
 8004508:	a357      	add	r3, pc, #348	; (adr r3, 8004668 <__ieee754_pow+0xa00>)
 800450a:	e9d3 2300 	ldrd	r2, r3, [r3]
 800450e:	f7fb fe23 	bl	8000158 <__aeabi_dsub>
 8004512:	4622      	mov	r2, r4
 8004514:	462b      	mov	r3, r5
 8004516:	f7fb ffd7 	bl	80004c8 <__aeabi_dmul>
 800451a:	a355      	add	r3, pc, #340	; (adr r3, 8004670 <__ieee754_pow+0xa08>)
 800451c:	e9d3 2300 	ldrd	r2, r3, [r3]
 8004520:	f7fb fe1c 	bl	800015c <__adddf3>
 8004524:	4622      	mov	r2, r4
 8004526:	462b      	mov	r3, r5
 8004528:	f7fb ffce 	bl	80004c8 <__aeabi_dmul>
 800452c:	4602      	mov	r2, r0
 800452e:	460b      	mov	r3, r1
 8004530:	4640      	mov	r0, r8
 8004532:	4649      	mov	r1, r9
 8004534:	f7fb fe10 	bl	8000158 <__aeabi_dsub>
 8004538:	4604      	mov	r4, r0
 800453a:	460d      	mov	r5, r1
 800453c:	4602      	mov	r2, r0
 800453e:	460b      	mov	r3, r1
 8004540:	4640      	mov	r0, r8
 8004542:	4649      	mov	r1, r9
 8004544:	f7fb ffc0 	bl	80004c8 <__aeabi_dmul>
 8004548:	2200      	movs	r2, #0
 800454a:	e9cd 0102 	strd	r0, r1, [sp, #8]
 800454e:	f04f 4380 	mov.w	r3, #1073741824	; 0x40000000
 8004552:	4620      	mov	r0, r4
 8004554:	4629      	mov	r1, r5
 8004556:	f7fb fdff 	bl	8000158 <__aeabi_dsub>
 800455a:	4602      	mov	r2, r0
 800455c:	460b      	mov	r3, r1
 800455e:	e9dd 0102 	ldrd	r0, r1, [sp, #8]
 8004562:	f7fc f8db 	bl	800071c <__aeabi_ddiv>
 8004566:	4632      	mov	r2, r6
 8004568:	4604      	mov	r4, r0
 800456a:	460d      	mov	r5, r1
 800456c:	463b      	mov	r3, r7
 800456e:	4640      	mov	r0, r8
 8004570:	4649      	mov	r1, r9
 8004572:	f7fb ffa9 	bl	80004c8 <__aeabi_dmul>
 8004576:	4632      	mov	r2, r6
 8004578:	463b      	mov	r3, r7
 800457a:	f7fb fdef 	bl	800015c <__adddf3>
 800457e:	4602      	mov	r2, r0
 8004580:	460b      	mov	r3, r1
 8004582:	4620      	mov	r0, r4
 8004584:	4629      	mov	r1, r5
 8004586:	f7fb fde7 	bl	8000158 <__aeabi_dsub>
 800458a:	4642      	mov	r2, r8
 800458c:	464b      	mov	r3, r9
 800458e:	f7fb fde3 	bl	8000158 <__aeabi_dsub>
 8004592:	4602      	mov	r2, r0
 8004594:	460b      	mov	r3, r1
 8004596:	2000      	movs	r0, #0
 8004598:	493b      	ldr	r1, [pc, #236]	; (8004688 <__ieee754_pow+0xa20>)
 800459a:	f7fb fddd 	bl	8000158 <__aeabi_dsub>
 800459e:	eb01 540a 	add.w	r4, r1, sl, lsl #20
 80045a2:	f5b4 1f80 	cmp.w	r4, #1048576	; 0x100000
 80045a6:	da2b      	bge.n	8004600 <__ieee754_pow+0x998>
 80045a8:	4652      	mov	r2, sl
 80045aa:	f000 f9b9 	bl	8004920 <scalbn>
 80045ae:	e9dd 2300 	ldrd	r2, r3, [sp]
 80045b2:	f7ff bbf2 	b.w	8003d9a <__ieee754_pow+0x132>
 80045b6:	4b35      	ldr	r3, [pc, #212]	; (800468c <__ieee754_pow+0xa24>)
 80045b8:	f021 4700 	bic.w	r7, r1, #2147483648	; 0x80000000
 80045bc:	429f      	cmp	r7, r3
 80045be:	f77f af13 	ble.w	80043e8 <__ieee754_pow+0x780>
 80045c2:	4b33      	ldr	r3, [pc, #204]	; (8004690 <__ieee754_pow+0xa28>)
 80045c4:	440b      	add	r3, r1
 80045c6:	4303      	orrs	r3, r0
 80045c8:	d00b      	beq.n	80045e2 <__ieee754_pow+0x97a>
 80045ca:	a32b      	add	r3, pc, #172	; (adr r3, 8004678 <__ieee754_pow+0xa10>)
 80045cc:	e9d3 2300 	ldrd	r2, r3, [r3]
 80045d0:	e9dd 0100 	ldrd	r0, r1, [sp]
 80045d4:	f7fb ff78 	bl	80004c8 <__aeabi_dmul>
 80045d8:	a327      	add	r3, pc, #156	; (adr r3, 8004678 <__ieee754_pow+0xa10>)
 80045da:	e9d3 2300 	ldrd	r2, r3, [r3]
 80045de:	f7ff bbdc 	b.w	8003d9a <__ieee754_pow+0x132>
 80045e2:	4622      	mov	r2, r4
 80045e4:	462b      	mov	r3, r5
 80045e6:	f7fb fdb7 	bl	8000158 <__aeabi_dsub>
 80045ea:	4642      	mov	r2, r8
 80045ec:	464b      	mov	r3, r9
 80045ee:	f7fc f9f1 	bl	80009d4 <__aeabi_dcmpge>
 80045f2:	2800      	cmp	r0, #0
 80045f4:	f43f aef8 	beq.w	80043e8 <__ieee754_pow+0x780>
 80045f8:	e7e7      	b.n	80045ca <__ieee754_pow+0x962>
 80045fa:	f04f 0a00 	mov.w	sl, #0
 80045fe:	e71e      	b.n	800443e <__ieee754_pow+0x7d6>
 8004600:	4621      	mov	r1, r4
 8004602:	e7d4      	b.n	80045ae <__ieee754_pow+0x946>
 8004604:	f04f 0b00 	mov.w	fp, #0
 8004608:	f8df c07c 	ldr.w	ip, [pc, #124]	; 8004688 <__ieee754_pow+0xa20>
 800460c:	f7ff bbb0 	b.w	8003d70 <__ieee754_pow+0x108>
 8004610:	e9dd bc02 	ldrd	fp, ip, [sp, #8]
 8004614:	f7ff bbac 	b.w	8003d70 <__ieee754_pow+0x108>
 8004618:	4638      	mov	r0, r7
 800461a:	4641      	mov	r1, r8
 800461c:	f7ff bbbf 	b.w	8003d9e <__ieee754_pow+0x136>
 8004620:	9200      	str	r2, [sp, #0]
 8004622:	f7ff bb7f 	b.w	8003d24 <__ieee754_pow+0xbc>
 8004626:	2300      	movs	r3, #0
 8004628:	f7ff bb69 	b.w	8003cfe <__ieee754_pow+0x96>
 800462c:	f3af 8000 	nop.w
 8004630:	652b82fe 	.word	0x652b82fe
 8004634:	3c971547 	.word	0x3c971547
 8004638:	00000000 	.word	0x00000000
 800463c:	3fe62e43 	.word	0x3fe62e43
 8004640:	fefa39ef 	.word	0xfefa39ef
 8004644:	3fe62e42 	.word	0x3fe62e42
 8004648:	0ca86c39 	.word	0x0ca86c39
 800464c:	be205c61 	.word	0xbe205c61
 8004650:	72bea4d0 	.word	0x72bea4d0
 8004654:	3e663769 	.word	0x3e663769
 8004658:	c5d26bf1 	.word	0xc5d26bf1
 800465c:	3ebbbd41 	.word	0x3ebbbd41
 8004660:	af25de2c 	.word	0xaf25de2c
 8004664:	3f11566a 	.word	0x3f11566a
 8004668:	16bebd93 	.word	0x16bebd93
 800466c:	3f66c16c 	.word	0x3f66c16c
 8004670:	5555553e 	.word	0x5555553e
 8004674:	3fc55555 	.word	0x3fc55555
 8004678:	c2f8f359 	.word	0xc2f8f359
 800467c:	01a56e1f 	.word	0x01a56e1f
 8004680:	3fe00000 	.word	0x3fe00000
 8004684:	000fffff 	.word	0x000fffff
 8004688:	3ff00000 	.word	0x3ff00000
 800468c:	4090cbff 	.word	0x4090cbff
 8004690:	3f6f3400 	.word	0x3f6f3400

08004694 <__ieee754_sqrt>:
 8004694:	f8df c150 	ldr.w	ip, [pc, #336]	; 80047e8 <__ieee754_sqrt+0x154>
 8004698:	e92d 41f0 	stmdb	sp!, {r4, r5, r6, r7, r8, lr}
 800469c:	ea3c 0c01 	bics.w	ip, ip, r1
 80046a0:	460b      	mov	r3, r1
 80046a2:	4606      	mov	r6, r0
 80046a4:	460d      	mov	r5, r1
 80046a6:	460a      	mov	r2, r1
 80046a8:	4607      	mov	r7, r0
 80046aa:	4604      	mov	r4, r0
 80046ac:	d10e      	bne.n	80046cc <__ieee754_sqrt+0x38>
 80046ae:	4602      	mov	r2, r0
 80046b0:	f7fb ff0a 	bl	80004c8 <__aeabi_dmul>
 80046b4:	4602      	mov	r2, r0
 80046b6:	460b      	mov	r3, r1
 80046b8:	4630      	mov	r0, r6
 80046ba:	4629      	mov	r1, r5
 80046bc:	f7fb fd4e 	bl	800015c <__adddf3>
 80046c0:	4606      	mov	r6, r0
 80046c2:	460d      	mov	r5, r1
 80046c4:	4630      	mov	r0, r6
 80046c6:	4629      	mov	r1, r5
 80046c8:	e8bd 81f0 	ldmia.w	sp!, {r4, r5, r6, r7, r8, pc}
 80046cc:	2900      	cmp	r1, #0
 80046ce:	dc0d      	bgt.n	80046ec <__ieee754_sqrt+0x58>
 80046d0:	f021 4c00 	bic.w	ip, r1, #2147483648	; 0x80000000
 80046d4:	ea5c 0707 	orrs.w	r7, ip, r7
 80046d8:	d0f4      	beq.n	80046c4 <__ieee754_sqrt+0x30>
 80046da:	b139      	cbz	r1, 80046ec <__ieee754_sqrt+0x58>
 80046dc:	4602      	mov	r2, r0
 80046de:	f7fb fd3b 	bl	8000158 <__aeabi_dsub>
 80046e2:	4602      	mov	r2, r0
 80046e4:	460b      	mov	r3, r1
 80046e6:	f7fc f819 	bl	800071c <__aeabi_ddiv>
 80046ea:	e7e9      	b.n	80046c0 <__ieee754_sqrt+0x2c>
 80046ec:	1512      	asrs	r2, r2, #20
 80046ee:	d074      	beq.n	80047da <__ieee754_sqrt+0x146>
 80046f0:	2000      	movs	r0, #0
 80046f2:	07d5      	lsls	r5, r2, #31
 80046f4:	f3c3 0313 	ubfx	r3, r3, #0, #20
 80046f8:	f443 1180 	orr.w	r1, r3, #1048576	; 0x100000
 80046fc:	bf5e      	ittt	pl
 80046fe:	0fe3      	lsrpl	r3, r4, #31
 8004700:	0064      	lslpl	r4, r4, #1
 8004702:	eb03 0141 	addpl.w	r1, r3, r1, lsl #1
 8004706:	0fe3      	lsrs	r3, r4, #31
 8004708:	f2a2 36ff 	subw	r6, r2, #1023	; 0x3ff
 800470c:	eb03 0341 	add.w	r3, r3, r1, lsl #1
 8004710:	2516      	movs	r5, #22
 8004712:	4601      	mov	r1, r0
 8004714:	f44f 1200 	mov.w	r2, #2097152	; 0x200000
 8004718:	1076      	asrs	r6, r6, #1
 800471a:	0064      	lsls	r4, r4, #1
 800471c:	188f      	adds	r7, r1, r2
 800471e:	429f      	cmp	r7, r3
 8004720:	bfde      	ittt	le
 8004722:	1bdb      	suble	r3, r3, r7
 8004724:	18b9      	addle	r1, r7, r2
 8004726:	1880      	addle	r0, r0, r2
 8004728:	005b      	lsls	r3, r3, #1
 800472a:	3d01      	subs	r5, #1
 800472c:	eb03 73d4 	add.w	r3, r3, r4, lsr #31
 8004730:	ea4f 0252 	mov.w	r2, r2, lsr #1
 8004734:	ea4f 0444 	mov.w	r4, r4, lsl #1
 8004738:	d1f0      	bne.n	800471c <__ieee754_sqrt+0x88>
 800473a:	462a      	mov	r2, r5
 800473c:	f04f 0e20 	mov.w	lr, #32
 8004740:	f04f 4700 	mov.w	r7, #2147483648	; 0x80000000
 8004744:	428b      	cmp	r3, r1
 8004746:	eb07 0c05 	add.w	ip, r7, r5
 800474a:	dc02      	bgt.n	8004752 <__ieee754_sqrt+0xbe>
 800474c:	d113      	bne.n	8004776 <__ieee754_sqrt+0xe2>
 800474e:	45a4      	cmp	ip, r4
 8004750:	d811      	bhi.n	8004776 <__ieee754_sqrt+0xe2>
 8004752:	f1bc 0f00 	cmp.w	ip, #0
 8004756:	eb0c 0507 	add.w	r5, ip, r7
 800475a:	da43      	bge.n	80047e4 <__ieee754_sqrt+0x150>
 800475c:	2d00      	cmp	r5, #0
 800475e:	db41      	blt.n	80047e4 <__ieee754_sqrt+0x150>
 8004760:	f101 0801 	add.w	r8, r1, #1
 8004764:	1a5b      	subs	r3, r3, r1
 8004766:	4641      	mov	r1, r8
 8004768:	45a4      	cmp	ip, r4
 800476a:	bf88      	it	hi
 800476c:	f103 33ff 	addhi.w	r3, r3, #4294967295
 8004770:	eba4 040c 	sub.w	r4, r4, ip
 8004774:	443a      	add	r2, r7
 8004776:	005b      	lsls	r3, r3, #1
 8004778:	f1be 0e01 	subs.w	lr, lr, #1
 800477c:	eb03 73d4 	add.w	r3, r3, r4, lsr #31
 8004780:	ea4f 0757 	mov.w	r7, r7, lsr #1
 8004784:	ea4f 0444 	mov.w	r4, r4, lsl #1
 8004788:	d1dc      	bne.n	8004744 <__ieee754_sqrt+0xb0>
 800478a:	4323      	orrs	r3, r4
 800478c:	d006      	beq.n	800479c <__ieee754_sqrt+0x108>
 800478e:	1c54      	adds	r4, r2, #1
 8004790:	bf0b      	itete	eq
 8004792:	4672      	moveq	r2, lr
 8004794:	3201      	addne	r2, #1
 8004796:	3001      	addeq	r0, #1
 8004798:	f022 0201 	bicne.w	r2, r2, #1
 800479c:	1043      	asrs	r3, r0, #1
 800479e:	07c1      	lsls	r1, r0, #31
 80047a0:	ea4f 0252 	mov.w	r2, r2, lsr #1
 80047a4:	f103 537f 	add.w	r3, r3, #1069547520	; 0x3fc00000
 80047a8:	f503 1300 	add.w	r3, r3, #2097152	; 0x200000
 80047ac:	bf48      	it	mi
 80047ae:	f042 4200 	orrmi.w	r2, r2, #2147483648	; 0x80000000
 80047b2:	4610      	mov	r0, r2
 80047b4:	eb03 5106 	add.w	r1, r3, r6, lsl #20
 80047b8:	e782      	b.n	80046c0 <__ieee754_sqrt+0x2c>
 80047ba:	0ae3      	lsrs	r3, r4, #11
 80047bc:	3915      	subs	r1, #21
 80047be:	0564      	lsls	r4, r4, #21
 80047c0:	2b00      	cmp	r3, #0
 80047c2:	d0fa      	beq.n	80047ba <__ieee754_sqrt+0x126>
 80047c4:	02de      	lsls	r6, r3, #11
 80047c6:	d50a      	bpl.n	80047de <__ieee754_sqrt+0x14a>
 80047c8:	f1c2 0020 	rsb	r0, r2, #32
 80047cc:	fa24 f000 	lsr.w	r0, r4, r0
 80047d0:	1e55      	subs	r5, r2, #1
 80047d2:	4094      	lsls	r4, r2
 80047d4:	4303      	orrs	r3, r0
 80047d6:	1b4a      	subs	r2, r1, r5
 80047d8:	e78a      	b.n	80046f0 <__ieee754_sqrt+0x5c>
 80047da:	4611      	mov	r1, r2
 80047dc:	e7f0      	b.n	80047c0 <__ieee754_sqrt+0x12c>
 80047de:	005b      	lsls	r3, r3, #1
 80047e0:	3201      	adds	r2, #1
 80047e2:	e7ef      	b.n	80047c4 <__ieee754_sqrt+0x130>
 80047e4:	4688      	mov	r8, r1
 80047e6:	e7bd      	b.n	8004764 <__ieee754_sqrt+0xd0>
 80047e8:	7ff00000 	.word	0x7ff00000

080047ec <fabs>:
 80047ec:	f021 4100 	bic.w	r1, r1, #2147483648	; 0x80000000
 80047f0:	4770      	bx	lr

080047f2 <finite>:
 80047f2:	f041 4000 	orr.w	r0, r1, #2147483648	; 0x80000000
 80047f6:	f500 1080 	add.w	r0, r0, #1048576	; 0x100000
 80047fa:	0fc0      	lsrs	r0, r0, #31
 80047fc:	4770      	bx	lr
	...

08004800 <nan>:
 8004800:	2000      	movs	r0, #0
 8004802:	4901      	ldr	r1, [pc, #4]	; (8004808 <nan+0x8>)
 8004804:	4770      	bx	lr
 8004806:	bf00      	nop
 8004808:	7ff80000 	.word	0x7ff80000

0800480c <rint>:
 800480c:	f3c1 5c0a 	ubfx	ip, r1, #20, #11
 8004810:	b5f7      	push	{r0, r1, r2, r4, r5, r6, r7, lr}
 8004812:	f2ac 37ff 	subw	r7, ip, #1023	; 0x3ff
 8004816:	2f13      	cmp	r7, #19
 8004818:	4602      	mov	r2, r0
 800481a:	460b      	mov	r3, r1
 800481c:	460c      	mov	r4, r1
 800481e:	4605      	mov	r5, r0
 8004820:	ea4f 76d1 	mov.w	r6, r1, lsr #31
 8004824:	dc59      	bgt.n	80048da <rint+0xce>
 8004826:	2f00      	cmp	r7, #0
 8004828:	da2a      	bge.n	8004880 <rint+0x74>
 800482a:	f021 4100 	bic.w	r1, r1, #2147483648	; 0x80000000
 800482e:	4301      	orrs	r1, r0
 8004830:	d022      	beq.n	8004878 <rint+0x6c>
 8004832:	f3c3 0113 	ubfx	r1, r3, #0, #20
 8004836:	4301      	orrs	r1, r0
 8004838:	424d      	negs	r5, r1
 800483a:	430d      	orrs	r5, r1
 800483c:	4936      	ldr	r1, [pc, #216]	; (8004918 <rint+0x10c>)
 800483e:	0c5c      	lsrs	r4, r3, #17
 8004840:	0b2d      	lsrs	r5, r5, #12
 8004842:	f405 2500 	and.w	r5, r5, #524288	; 0x80000
 8004846:	0464      	lsls	r4, r4, #17
 8004848:	eb01 01c6 	add.w	r1, r1, r6, lsl #3
 800484c:	ea45 0304 	orr.w	r3, r5, r4
 8004850:	e9d1 4500 	ldrd	r4, r5, [r1]
 8004854:	4620      	mov	r0, r4
 8004856:	4629      	mov	r1, r5
 8004858:	f7fb fc80 	bl	800015c <__adddf3>
 800485c:	e9cd 0100 	strd	r0, r1, [sp]
 8004860:	e9dd 0100 	ldrd	r0, r1, [sp]
 8004864:	462b      	mov	r3, r5
 8004866:	4622      	mov	r2, r4
 8004868:	f7fb fc76 	bl	8000158 <__aeabi_dsub>
 800486c:	f021 4300 	bic.w	r3, r1, #2147483648	; 0x80000000
 8004870:	ea43 71c6 	orr.w	r1, r3, r6, lsl #31
 8004874:	4602      	mov	r2, r0
 8004876:	460b      	mov	r3, r1
 8004878:	4610      	mov	r0, r2
 800487a:	4619      	mov	r1, r3
 800487c:	b003      	add	sp, #12
 800487e:	bdf0      	pop	{r4, r5, r6, r7, pc}
 8004880:	4926      	ldr	r1, [pc, #152]	; (800491c <rint+0x110>)
 8004882:	4139      	asrs	r1, r7
 8004884:	ea03 0001 	and.w	r0, r3, r1
 8004888:	4310      	orrs	r0, r2
 800488a:	d0f5      	beq.n	8004878 <rint+0x6c>
 800488c:	084b      	lsrs	r3, r1, #1
 800488e:	ea04 0151 	and.w	r1, r4, r1, lsr #1
 8004892:	ea52 0501 	orrs.w	r5, r2, r1
 8004896:	d00c      	beq.n	80048b2 <rint+0xa6>
 8004898:	ea24 0303 	bic.w	r3, r4, r3
 800489c:	f44f 2480 	mov.w	r4, #262144	; 0x40000
 80048a0:	2f13      	cmp	r7, #19
 80048a2:	bf0c      	ite	eq
 80048a4:	f04f 4500 	moveq.w	r5, #2147483648	; 0x80000000
 80048a8:	2500      	movne	r5, #0
 80048aa:	fa44 f707 	asr.w	r7, r4, r7
 80048ae:	ea43 0407 	orr.w	r4, r3, r7
 80048b2:	4919      	ldr	r1, [pc, #100]	; (8004918 <rint+0x10c>)
 80048b4:	4623      	mov	r3, r4
 80048b6:	eb01 06c6 	add.w	r6, r1, r6, lsl #3
 80048ba:	462a      	mov	r2, r5
 80048bc:	e9d6 4500 	ldrd	r4, r5, [r6]
 80048c0:	4620      	mov	r0, r4
 80048c2:	4629      	mov	r1, r5
 80048c4:	f7fb fc4a 	bl	800015c <__adddf3>
 80048c8:	e9cd 0100 	strd	r0, r1, [sp]
 80048cc:	e9dd 0100 	ldrd	r0, r1, [sp]
 80048d0:	4622      	mov	r2, r4
 80048d2:	462b      	mov	r3, r5
 80048d4:	f7fb fc40 	bl	8000158 <__aeabi_dsub>
 80048d8:	e7cc      	b.n	8004874 <rint+0x68>
 80048da:	2f33      	cmp	r7, #51	; 0x33
 80048dc:	dd05      	ble.n	80048ea <rint+0xde>
 80048de:	f5b7 6f80 	cmp.w	r7, #1024	; 0x400
 80048e2:	d1c9      	bne.n	8004878 <rint+0x6c>
 80048e4:	f7fb fc3a 	bl	800015c <__adddf3>
 80048e8:	e7c4      	b.n	8004874 <rint+0x68>
 80048ea:	f04f 31ff 	mov.w	r1, #4294967295
 80048ee:	f2ac 4c13 	subw	ip, ip, #1043	; 0x413
 80048f2:	fa21 f10c 	lsr.w	r1, r1, ip
 80048f6:	4208      	tst	r0, r1
 80048f8:	d0be      	beq.n	8004878 <rint+0x6c>
 80048fa:	ea10 0251 	ands.w	r2, r0, r1, lsr #1
 80048fe:	bf18      	it	ne
 8004900:	f04f 4580 	movne.w	r5, #1073741824	; 0x40000000
 8004904:	ea4f 0351 	mov.w	r3, r1, lsr #1
 8004908:	bf1e      	ittt	ne
 800490a:	ea20 0303 	bicne.w	r3, r0, r3
 800490e:	fa45 fc0c 	asrne.w	ip, r5, ip
 8004912:	ea43 050c 	orrne.w	r5, r3, ip
 8004916:	e7cc      	b.n	80048b2 <rint+0xa6>
 8004918:	08004b00 	.word	0x08004b00
 800491c:	000fffff 	.word	0x000fffff

08004920 <scalbn>:
 8004920:	b5f8      	push	{r3, r4, r5, r6, r7, lr}
 8004922:	f3c1 560a 	ubfx	r6, r1, #20, #11
 8004926:	4604      	mov	r4, r0
 8004928:	460d      	mov	r5, r1
 800492a:	4617      	mov	r7, r2
 800492c:	460b      	mov	r3, r1
 800492e:	b996      	cbnz	r6, 8004956 <scalbn+0x36>
 8004930:	f021 4300 	bic.w	r3, r1, #2147483648	; 0x80000000
 8004934:	4303      	orrs	r3, r0
 8004936:	d039      	beq.n	80049ac <scalbn+0x8c>
 8004938:	4b35      	ldr	r3, [pc, #212]	; (8004a10 <scalbn+0xf0>)
 800493a:	2200      	movs	r2, #0
 800493c:	f7fb fdc4 	bl	80004c8 <__aeabi_dmul>
 8004940:	4b34      	ldr	r3, [pc, #208]	; (8004a14 <scalbn+0xf4>)
 8004942:	4604      	mov	r4, r0
 8004944:	429f      	cmp	r7, r3
 8004946:	460d      	mov	r5, r1
 8004948:	da0f      	bge.n	800496a <scalbn+0x4a>
 800494a:	a32d      	add	r3, pc, #180	; (adr r3, 8004a00 <scalbn+0xe0>)
 800494c:	e9d3 2300 	ldrd	r2, r3, [r3]
 8004950:	f7fb fdba 	bl	80004c8 <__aeabi_dmul>
 8004954:	e006      	b.n	8004964 <scalbn+0x44>
 8004956:	f240 72ff 	movw	r2, #2047	; 0x7ff
 800495a:	4296      	cmp	r6, r2
 800495c:	d10a      	bne.n	8004974 <scalbn+0x54>
 800495e:	4602      	mov	r2, r0
 8004960:	f7fb fbfc 	bl	800015c <__adddf3>
 8004964:	4604      	mov	r4, r0
 8004966:	460d      	mov	r5, r1
 8004968:	e020      	b.n	80049ac <scalbn+0x8c>
 800496a:	460b      	mov	r3, r1
 800496c:	f3c1 510a 	ubfx	r1, r1, #20, #11
 8004970:	f1a1 0636 	sub.w	r6, r1, #54	; 0x36
 8004974:	f240 72fe 	movw	r2, #2046	; 0x7fe
 8004978:	19b9      	adds	r1, r7, r6
 800497a:	4291      	cmp	r1, r2
 800497c:	dd0e      	ble.n	800499c <scalbn+0x7c>
 800497e:	a322      	add	r3, pc, #136	; (adr r3, 8004a08 <scalbn+0xe8>)
 8004980:	e9d3 2300 	ldrd	r2, r3, [r3]
 8004984:	f005 4400 	and.w	r4, r5, #2147483648	; 0x80000000
 8004988:	f044 41fc 	orr.w	r1, r4, #2113929216	; 0x7e000000
 800498c:	f441 115f 	orr.w	r1, r1, #3653632	; 0x37c000
 8004990:	f441 5110 	orr.w	r1, r1, #9216	; 0x2400
 8004994:	4820      	ldr	r0, [pc, #128]	; (8004a18 <scalbn+0xf8>)
 8004996:	f041 013c 	orr.w	r1, r1, #60	; 0x3c
 800499a:	e7d9      	b.n	8004950 <scalbn+0x30>
 800499c:	2900      	cmp	r1, #0
 800499e:	dd08      	ble.n	80049b2 <scalbn+0x92>
 80049a0:	f023 43ff 	bic.w	r3, r3, #2139095040	; 0x7f800000
 80049a4:	f423 03e0 	bic.w	r3, r3, #7340032	; 0x700000
 80049a8:	ea43 5501 	orr.w	r5, r3, r1, lsl #20
 80049ac:	4620      	mov	r0, r4
 80049ae:	4629      	mov	r1, r5
 80049b0:	bdf8      	pop	{r3, r4, r5, r6, r7, pc}
 80049b2:	f111 0f35 	cmn.w	r1, #53	; 0x35
 80049b6:	da16      	bge.n	80049e6 <scalbn+0xc6>
 80049b8:	f24c 3350 	movw	r3, #50000	; 0xc350
 80049bc:	429f      	cmp	r7, r3
 80049be:	ea4f 73d5 	mov.w	r3, r5, lsr #31
 80049c2:	dd08      	ble.n	80049d6 <scalbn+0xb6>
 80049c4:	4c15      	ldr	r4, [pc, #84]	; (8004a1c <scalbn+0xfc>)
 80049c6:	4814      	ldr	r0, [pc, #80]	; (8004a18 <scalbn+0xf8>)
 80049c8:	f363 74df 	bfi	r4, r3, #31, #1
 80049cc:	a30e      	add	r3, pc, #56	; (adr r3, 8004a08 <scalbn+0xe8>)
 80049ce:	e9d3 2300 	ldrd	r2, r3, [r3]
 80049d2:	4621      	mov	r1, r4
 80049d4:	e7bc      	b.n	8004950 <scalbn+0x30>
 80049d6:	4c12      	ldr	r4, [pc, #72]	; (8004a20 <scalbn+0x100>)
 80049d8:	4812      	ldr	r0, [pc, #72]	; (8004a24 <scalbn+0x104>)
 80049da:	f363 74df 	bfi	r4, r3, #31, #1
 80049de:	a308      	add	r3, pc, #32	; (adr r3, 8004a00 <scalbn+0xe0>)
 80049e0:	e9d3 2300 	ldrd	r2, r3, [r3]
 80049e4:	e7f5      	b.n	80049d2 <scalbn+0xb2>
 80049e6:	f023 43ff 	bic.w	r3, r3, #2139095040	; 0x7f800000
 80049ea:	3136      	adds	r1, #54	; 0x36
 80049ec:	f423 03e0 	bic.w	r3, r3, #7340032	; 0x700000
 80049f0:	ea43 5501 	orr.w	r5, r3, r1, lsl #20
 80049f4:	4620      	mov	r0, r4
 80049f6:	4629      	mov	r1, r5
 80049f8:	2200      	movs	r2, #0
 80049fa:	4b0b      	ldr	r3, [pc, #44]	; (8004a28 <scalbn+0x108>)
 80049fc:	e7a8      	b.n	8004950 <scalbn+0x30>
 80049fe:	bf00      	nop
 8004a00:	c2f8f359 	.word	0xc2f8f359
 8004a04:	01a56e1f 	.word	0x01a56e1f
 8004a08:	8800759c 	.word	0x8800759c
 8004a0c:	7e37e43c 	.word	0x7e37e43c
 8004a10:	43500000 	.word	0x43500000
 8004a14:	ffff3cb0 	.word	0xffff3cb0
 8004a18:	8800759c 	.word	0x8800759c
 8004a1c:	7e37e43c 	.word	0x7e37e43c
 8004a20:	01a56e1f 	.word	0x01a56e1f
 8004a24:	c2f8f359 	.word	0xc2f8f359
 8004a28:	3c900000 	.word	0x3c900000

08004a2c <_init>:
 8004a2c:	b5f8      	push	{r3, r4, r5, r6, r7, lr}
 8004a2e:	bf00      	nop
 8004a30:	bcf8      	pop	{r3, r4, r5, r6, r7}
 8004a32:	bc08      	pop	{r3}
 8004a34:	469e      	mov	lr, r3
 8004a36:	4770      	bx	lr

08004a38 <_fini>:
 8004a38:	b5f8      	push	{r3, r4, r5, r6, r7, lr}
 8004a3a:	bf00      	nop
 8004a3c:	bcf8      	pop	{r3, r4, r5, r6, r7}
 8004a3e:	bc08      	pop	{r3}
 8004a40:	469e      	mov	lr, r3
 8004a42:	4770      	bx	lr
